; ModuleID = 'main'
source_filename = "main"
target datalayout = "e-m:e-p270:32:32-p271:32:32-p272:64:64-i64:64-i128:128-f80:128-n8:16:32:64-S128"
target triple = "x86_64-pc-linux-gnu"

@"_RNvNvC9full_trees0_8$closure6vtable" = internal constant { ptr, ptr, ptr } { ptr @"_RNvNvC9full_trees0_8$closure4drop", ptr @"_RNvNvC9full_trees0_8$closure5clone", ptr @"_RNvNvC9full_trees0_8$closure8evaluate" }
@"_RNvNvC9full_trees1_8$closure6vtable" = internal constant { ptr, ptr, ptr } { ptr @"_RNvNvC9full_trees1_8$closure4drop", ptr @"_RNvNvC9full_trees1_8$closure5clone", ptr @"_RNvNvC9full_trees1_8$closure8evaluate" }
@"_RNvNvC3muls0_8$closure6vtable" = internal constant { ptr, ptr, ptr } { ptr @"_RNvNvC3muls0_8$closure4drop", ptr @"_RNvNvC3muls0_8$closure5clone", ptr @"_RNvNvC3muls0_8$closure8evaluate" }
@"_RNvNvC3muls1_8$closure6vtable" = internal constant { ptr, ptr, ptr } { ptr @"_RNvNvC3muls1_8$closure4drop", ptr @"_RNvNvC3muls1_8$closure5clone", ptr @"_RNvNvC3muls1_8$closure8evaluate" }
@"_RNvNvC3muls2_8$closure6vtable" = internal constant { ptr, ptr, ptr } { ptr @"_RNvNvC3muls2_8$closure4drop", ptr @"_RNvNvC3muls2_8$closure5clone", ptr @"_RNvNvC3muls2_8$closure8evaluate" }
@"_RNvNvC3muls3_8$closure6vtable" = internal constant { ptr, ptr, ptr } { ptr @"_RNvNvC3muls3_8$closure4drop", ptr @"_RNvNvC3muls3_8$closure5clone", ptr @"_RNvNvC3muls3_8$closure8evaluate" }
@"_RNvNvC2n5s0_8$closure6vtable" = internal constant { ptr, ptr, ptr } { ptr @"_RNvNvC2n5s0_8$closure4drop", ptr @"_RNvNvC2n5s0_8$closure5clone", ptr @"_RNvNvC2n5s0_8$closure8evaluate" }
@"_RNvNvC2n5s1_8$closure6vtable" = internal constant { ptr, ptr, ptr } { ptr @"_RNvNvC2n5s1_8$closure4drop", ptr @"_RNvNvC2n5s1_8$closure5clone", ptr @"_RNvNvC2n5s1_8$closure8evaluate" }
@"_RNvNvC3sucs0_8$closure6vtable" = internal constant { ptr, ptr, ptr } { ptr @"_RNvNvC3sucs0_8$closure4drop", ptr @"_RNvNvC3sucs0_8$closure5clone", ptr @"_RNvNvC3sucs0_8$closure8evaluate" }
@"_RNvNvC3sucs1_8$closure6vtable" = internal constant { ptr, ptr, ptr } { ptr @"_RNvNvC3sucs1_8$closure4drop", ptr @"_RNvNvC3sucs1_8$closure5clone", ptr @"_RNvNvC3sucs1_8$closure8evaluate" }
@"_RNvNvC2n2s0_8$closure6vtable" = internal constant { ptr, ptr, ptr } { ptr @"_RNvNvC2n2s0_8$closure4drop", ptr @"_RNvNvC2n2s0_8$closure5clone", ptr @"_RNvNvC2n2s0_8$closure8evaluate" }
@"_RNvNvC2n2s1_8$closure6vtable" = internal constant { ptr, ptr, ptr } { ptr @"_RNvNvC2n2s1_8$closure4drop", ptr @"_RNvNvC2n2s1_8$closure5clone", ptr @"_RNvNvC2n2s1_8$closure8evaluate" }
@"_RNvNvC12hoascbv_tests0_8$closure6vtable" = internal constant { ptr, ptr, ptr } { ptr @"_RNvNvC12hoascbv_tests0_8$closure4drop", ptr @"_RNvNvC12hoascbv_tests0_8$closure5clone", ptr @"_RNvNvC12hoascbv_tests0_8$closure8evaluate" }
@"_RNvNvC12hoascbv_tests1_8$closure6vtable" = internal constant { ptr, ptr, ptr } { ptr @"_RNvNvC12hoascbv_tests1_8$closure4drop", ptr @"_RNvNvC12hoascbv_tests1_8$closure5clone", ptr @"_RNvNvC12hoascbv_tests1_8$closure8evaluate" }
@"_RNvNvC12hoascbv_tests2_8$closure6vtable" = internal constant { ptr, ptr, ptr } { ptr @"_RNvNvC12hoascbv_tests2_8$closure4drop", ptr @"_RNvNvC12hoascbv_tests2_8$closure5clone", ptr @"_RNvNvC12hoascbv_tests2_8$closure8evaluate" }
@"_RNvNvC12hoascbv_tests3_8$closure6vtable" = internal constant { ptr, ptr, ptr } { ptr @"_RNvNvC12hoascbv_tests3_8$closure4drop", ptr @"_RNvNvC12hoascbv_tests3_8$closure5clone", ptr @"_RNvNvC12hoascbv_tests3_8$closure8evaluate" }
@"_RNvNvC12hoascbv_tests4_8$closure6vtable" = internal constant { ptr, ptr, ptr } { ptr @"_RNvNvC12hoascbv_tests4_8$closure4drop", ptr @"_RNvNvC12hoascbv_tests4_8$closure5clone", ptr @"_RNvNvC12hoascbv_tests4_8$closure8evaluate" }
@"_RNvNvC12hoascbv_tests5_8$closure6vtable" = internal constant { ptr, ptr, ptr } { ptr @"_RNvNvC12hoascbv_tests5_8$closure4drop", ptr @"_RNvNvC12hoascbv_tests5_8$closure5clone", ptr @"_RNvNvC12hoascbv_tests5_8$closure8evaluate" }
@"_RNvNvC12hoascbv_tests6_8$closure6vtable" = internal constant { ptr, ptr, ptr } { ptr @"_RNvNvC12hoascbv_tests6_8$closure4drop", ptr @"_RNvNvC12hoascbv_tests6_8$closure5clone", ptr @"_RNvNvC12hoascbv_tests6_8$closure8evaluate" }
@"_RNvNvC12hoascbv_tests7_8$closure6vtable" = internal constant { ptr, ptr, ptr } { ptr @"_RNvNvC12hoascbv_tests7_8$closure4drop", ptr @"_RNvNvC12hoascbv_tests7_8$closure5clone", ptr @"_RNvNvC12hoascbv_tests7_8$closure8evaluate" }
@"_RNvNvC12hoascbv_tests8_8$closure6vtable" = internal constant { ptr, ptr, ptr } { ptr @"_RNvNvC12hoascbv_tests8_8$closure4drop", ptr @"_RNvNvC12hoascbv_tests8_8$closure5clone", ptr @"_RNvNvC12hoascbv_tests8_8$closure8evaluate" }
@"_RNvNvC12hoascbv_tests9_8$closure6vtable" = internal constant { ptr, ptr, ptr } { ptr @"_RNvNvC12hoascbv_tests9_8$closure4drop", ptr @"_RNvNvC12hoascbv_tests9_8$closure5clone", ptr @"_RNvNvC12hoascbv_tests9_8$closure8evaluate" }
@"_RNvNvC12hoascbv_testsA_8$closure6vtable" = internal constant { ptr, ptr, ptr } { ptr @"_RNvNvC12hoascbv_testsA_8$closure4drop", ptr @"_RNvNvC12hoascbv_testsA_8$closure5clone", ptr @"_RNvNvC12hoascbv_testsA_8$closure8evaluate" }
@"_RNvNvC12hoascbv_testsB_8$closure6vtable" = internal constant { ptr, ptr, ptr } { ptr @"_RNvNvC12hoascbv_testsB_8$closure4drop", ptr @"_RNvNvC12hoascbv_testsB_8$closure5clone", ptr @"_RNvNvC12hoascbv_testsB_8$closure8evaluate" }
@"_RNvNvC12hoascbv_testsC_8$closure6vtable" = internal constant { ptr, ptr, ptr } { ptr @"_RNvNvC12hoascbv_testsC_8$closure4drop", ptr @"_RNvNvC12hoascbv_testsC_8$closure5clone", ptr @"_RNvNvC12hoascbv_testsC_8$closure8evaluate" }
@"_RNvNvC12hoascbv_testsD_8$closure6vtable" = internal constant { ptr, ptr, ptr } { ptr @"_RNvNvC12hoascbv_testsD_8$closure4drop", ptr @"_RNvNvC12hoascbv_testsD_8$closure5clone", ptr @"_RNvNvC12hoascbv_testsD_8$closure8evaluate" }
@"_RNvNvC12hoascbv_testsE_8$closure6vtable" = internal constant { ptr, ptr, ptr } { ptr @"_RNvNvC12hoascbv_testsE_8$closure4drop", ptr @"_RNvNvC12hoascbv_testsE_8$closure5clone", ptr @"_RNvNvC12hoascbv_testsE_8$closure8evaluate" }
@"_RNvNvC12hoascbv_testsF_8$closure6vtable" = internal constant { ptr, ptr, ptr } { ptr @"_RNvNvC12hoascbv_testsF_8$closure4drop", ptr @"_RNvNvC12hoascbv_testsF_8$closure5clone", ptr @"_RNvNvC12hoascbv_testsF_8$closure8evaluate" }
@"_RNvNvC12hoascbv_testsG_8$closure6vtable" = internal constant { ptr, ptr, ptr } { ptr @"_RNvNvC12hoascbv_testsG_8$closure4drop", ptr @"_RNvNvC12hoascbv_testsG_8$closure5clone", ptr @"_RNvNvC12hoascbv_testsG_8$closure8evaluate" }
@"_RNvNvC12hoascbv_testsH_8$closure6vtable" = internal constant { ptr, ptr, ptr } { ptr @"_RNvNvC12hoascbv_testsH_8$closure4drop", ptr @"_RNvNvC12hoascbv_testsH_8$closure5clone", ptr @"_RNvNvC12hoascbv_testsH_8$closure8evaluate" }
@"_RNvNvC12hoascbv_testsI_8$closure6vtable" = internal constant { ptr, ptr, ptr } { ptr @"_RNvNvC12hoascbv_testsI_8$closure4drop", ptr @"_RNvNvC12hoascbv_testsI_8$closure5clone", ptr @"_RNvNvC12hoascbv_testsI_8$closure8evaluate" }
@"_RNvNvC12hoascbv_testsJ_8$closure6vtable" = internal constant { ptr, ptr, ptr } { ptr @"_RNvNvC12hoascbv_testsJ_8$closure4drop", ptr @"_RNvNvC12hoascbv_testsJ_8$closure5clone", ptr @"_RNvNvC12hoascbv_testsJ_8$closure8evaluate" }
@"_RNvNvC4nodes0_8$closure6vtable" = internal constant { ptr, ptr, ptr } { ptr @"_RNvNvC4nodes0_8$closure4drop", ptr @"_RNvNvC4nodes0_8$closure5clone", ptr @"_RNvNvC4nodes0_8$closure8evaluate" }
@"_RNvNvC4nodes1_8$closure6vtable" = internal constant { ptr, ptr, ptr } { ptr @"_RNvNvC4nodes1_8$closure4drop", ptr @"_RNvNvC4nodes1_8$closure5clone", ptr @"_RNvNvC4nodes1_8$closure8evaluate" }
@"_RNvNvC4nodes2_8$closure6vtable" = internal constant { ptr, ptr, ptr } { ptr @"_RNvNvC4nodes2_8$closure4drop", ptr @"_RNvNvC4nodes2_8$closure5clone", ptr @"_RNvNvC4nodes2_8$closure8evaluate" }
@"_RNvNvC4nodes3_8$closure6vtable" = internal constant { ptr, ptr, ptr } { ptr @"_RNvNvC4nodes3_8$closure4drop", ptr @"_RNvNvC4nodes3_8$closure5clone", ptr @"_RNvNvC4nodes3_8$closure8evaluate" }
@"_RNvNvC4leafs0_8$closure6vtable" = internal constant { ptr, ptr, ptr } { ptr @"_RNvNvC4leafs0_8$closure4drop", ptr @"_RNvNvC4leafs0_8$closure5clone", ptr @"_RNvNvC4leafs0_8$closure8evaluate" }
@"_RNvNvC4leafs1_8$closure6vtable" = internal constant { ptr, ptr, ptr } { ptr @"_RNvNvC4leafs1_8$closure4drop", ptr @"_RNvNvC4leafs1_8$closure5clone", ptr @"_RNvNvC4leafs1_8$closure8evaluate" }

; Function Attrs: mustprogress nocallback nounwind willreturn allockind("free")
declare void @__reussir_deallocate(ptr allocptr noundef captures(none), i64 allocalign noundef, i64 noundef) local_unnamed_addr #0

; Function Attrs: mustprogress nocallback nounwind willreturn allockind("alloc,uninitialized,aligned") allocsize(1)
declare noalias noundef ptr @__reussir_allocate(i64 allocalign noundef, i64 noundef) local_unnamed_addr #1

define linkonce_odr void @_RINvNvC4core9intrinsic13drop_in_placeC5ValueE(ptr %0) local_unnamed_addr {
  %2 = load i64, ptr %0, align 8
  %3 = icmp ult i64 %2, 3
  tail call void @llvm.assume(i1 %3)
  %4 = trunc nuw nsw i64 %2 to i32
  switch i32 %4, label %default.unreachable [
    i32 0, label %30
    i32 1, label %5
    i32 2, label %24
  ]

5:                                                ; preds = %1
  %6 = getelementptr i8, ptr %0, i64 8
  %7 = load ptr, ptr %6, align 8
  %8 = load i64, ptr %7, align 8
  %9 = add i64 %8, -1
  store i64 %9, ptr %7, align 8
  %10 = icmp eq i64 %8, 1
  br i1 %10, label %11, label %13

11:                                               ; preds = %5
  %12 = getelementptr i8, ptr %7, i64 8
  tail call void @_RINvNvC4core9intrinsic13drop_in_placeC5ValueE(ptr %12)
  br label %13

13:                                               ; preds = %11, %5
  %14 = phi ptr [ %7, %11 ], [ null, %5 ]
  %15 = getelementptr i8, ptr %0, i64 16
  %16 = load ptr, ptr %15, align 8
  %17 = load i64, ptr %16, align 8
  %18 = add i64 %17, -1
  store i64 %18, ptr %16, align 8
  %19 = icmp eq i64 %17, 1
  br i1 %19, label %20, label %22

20:                                               ; preds = %13
  %21 = getelementptr i8, ptr %16, i64 8
  tail call void @_RINvNvC4core9intrinsic13drop_in_placeC5ValueE(ptr %21)
  br label %22

22:                                               ; preds = %20, %13
  %23 = phi ptr [ %16, %20 ], [ null, %13 ]
  tail call void @__reussir_deallocate(ptr %23, i64 8, i64 32)
  tail call void @__reussir_deallocate(ptr %14, i64 8, i64 32)
  br label %30

24:                                               ; preds = %1
  %25 = getelementptr i8, ptr %0, i64 16
  %26 = load ptr, ptr %25, align 8
  %27 = getelementptr i8, ptr %26, i64 8
  %28 = load ptr, ptr %27, align 8, !invariant.group !3
  %29 = load ptr, ptr %28, align 8, !invariant.group !3
  tail call void %29(ptr %26)
  br label %30

default.unreachable:                              ; preds = %1
  unreachable

30:                                               ; preds = %1, %22, %24
  ret void
}

define weak_odr i64 @_RC5force(ptr %0) local_unnamed_addr !dbg !4 {
  %2 = getelementptr i8, ptr %0, i64 8, !dbg !6
  %3 = load i64, ptr %2, align 8, !dbg !6
  %4 = icmp ult i64 %3, 3, !dbg !6
  tail call void @llvm.assume(i1 %4), !dbg !6
  %5 = trunc nuw nsw i64 %3 to i32, !dbg !6
  switch i32 %5, label %default.unreachable [
    i32 0, label %6
    i32 1, label %10
    i32 2, label %30
  ], !dbg !6

6:                                                ; preds = %1
  %7 = load i64, ptr %0, align 8, !dbg !6
  %8 = add i64 %7, -1, !dbg !6
  store i64 %8, ptr %0, align 8, !dbg !6
  %9 = icmp eq i64 %7, 1, !dbg !6
  %. = select i1 %9, ptr %0, ptr null, !dbg !6
  br label %common.ret, !dbg !6

10:                                               ; preds = %1
  %11 = getelementptr i8, ptr %0, i64 16, !dbg !6
  %12 = getelementptr i8, ptr %0, i64 24, !dbg !6
  %13 = load ptr, ptr %12, align 8, !dbg !6
  %14 = load ptr, ptr %11, align 8, !dbg !6
  %15 = load i64, ptr %0, align 8, !dbg !6
  %16 = add i64 %15, -1, !dbg !6
  store i64 %16, ptr %0, align 8, !dbg !6
  %17 = icmp eq i64 %15, 1, !dbg !6
  br i1 %17, label %25, label %18, !dbg !6

18:                                               ; preds = %10
  %19 = load i64, ptr %13, align 8, !dbg !6
  %20 = add i64 %19, 1, !dbg !6
  store i64 %20, ptr %13, align 8, !dbg !6
  %21 = icmp ne i64 %19, 0, !dbg !6
  tail call void @llvm.assume(i1 %21), !dbg !6
  %22 = load i64, ptr %14, align 8, !dbg !6
  %23 = add i64 %22, 1, !dbg !6
  store i64 %23, ptr %14, align 8, !dbg !6
  %24 = icmp ne i64 %22, 0, !dbg !6
  tail call void @llvm.assume(i1 %24), !dbg !6
  br label %25, !dbg !6

common.ret:                                       ; preds = %6, %40, %25
  %..sink = phi ptr [ %., %6 ], [ %41, %40 ], [ %26, %25 ]
  %common.ret.op = phi i64 [ 0, %6 ], [ %43, %40 ], [ %29, %25 ]
  tail call void @__reussir_deallocate(ptr %..sink, i64 8, i64 32), !dbg !6
  ret i64 %common.ret.op, !dbg !6

25:                                               ; preds = %18, %10
  %26 = phi ptr [ null, %18 ], [ %0, %10 ], !dbg !6
  %27 = tail call i64 @_RC5force(ptr %14), !dbg !7
  %28 = tail call i64 @_RC5force(ptr %13), !dbg !8
  %29 = add i64 %28, %27, !dbg !6
  br label %common.ret, !dbg !6

30:                                               ; preds = %1
  %31 = getelementptr i8, ptr %0, i64 16, !dbg !6
  %32 = load ptr, ptr %31, align 8, !dbg !6
  %33 = load i64, ptr %0, align 8, !dbg !6
  %34 = add i64 %33, -1, !dbg !6
  store i64 %34, ptr %0, align 8, !dbg !6
  %35 = icmp eq i64 %33, 1, !dbg !6
  br i1 %35, label %40, label %36, !dbg !6

36:                                               ; preds = %30
  %37 = load i64, ptr %32, align 8, !dbg !6
  %38 = add i64 %37, 1, !dbg !6
  store i64 %38, ptr %32, align 8, !dbg !6
  %39 = icmp ne i64 %37, 0, !dbg !6
  tail call void @llvm.assume(i1 %39), !dbg !6
  br label %40, !dbg !6

40:                                               ; preds = %36, %30
  %41 = phi ptr [ null, %36 ], [ %0, %30 ], !dbg !6
  %42 = tail call i64 @_RC5force(ptr %32), !dbg !9
  %43 = add i64 %42, 1, !dbg !6
  br label %common.ret, !dbg !6

default.unreachable:                              ; preds = %1
  unreachable
}

define weak_odr ptr @_RC9full_tree() local_unnamed_addr !dbg !10 {
  %1 = tail call align 8 dereferenceable_or_null(32) ptr @__reussir_allocate(i64 8, i64 32), !dbg !11
  store i64 1, ptr %1, align 8, !dbg !11
  %2 = getelementptr i8, ptr %1, i64 8, !dbg !11
  store ptr @"_RNvNvC9full_trees1_8$closure6vtable", ptr %2, align 8, !dbg !11, !invariant.group !3
  %3 = getelementptr i8, ptr %1, i64 16, !dbg !11
  %4 = getelementptr i8, ptr %1, i64 24, !dbg !11
  store ptr %4, ptr %3, align 8, !dbg !11
  %5 = tail call align 8 dereferenceable_or_null(32) ptr @__reussir_allocate(i64 8, i64 32), !dbg !12
  store i64 1, ptr %5, align 8, !dbg !12
  %6 = getelementptr i8, ptr %5, i64 8, !dbg !12
  store i64 2, ptr %6, align 8, !dbg !12
  %.repack4 = getelementptr i8, ptr %5, i64 16, !dbg !12
  store i64 0, ptr %.repack4, align 8, !dbg !12
  %.repack4.repack6 = getelementptr i8, ptr %5, i64 24, !dbg !12
  store ptr %1, ptr %.repack4.repack6, align 8, !dbg !12
  ret ptr %5, !dbg !12
}

define weak_odr ptr @_RC3mul() local_unnamed_addr !dbg !13 {
  %1 = tail call align 8 dereferenceable_or_null(32) ptr @__reussir_allocate(i64 8, i64 32), !dbg !14
  store i64 1, ptr %1, align 8, !dbg !14
  %2 = getelementptr i8, ptr %1, i64 8, !dbg !14
  store ptr @"_RNvNvC3muls3_8$closure6vtable", ptr %2, align 8, !dbg !14, !invariant.group !3
  %3 = getelementptr i8, ptr %1, i64 16, !dbg !14
  %4 = getelementptr i8, ptr %1, i64 24, !dbg !14
  store ptr %4, ptr %3, align 8, !dbg !14
  %5 = tail call align 8 dereferenceable_or_null(32) ptr @__reussir_allocate(i64 8, i64 32), !dbg !15
  store i64 1, ptr %5, align 8, !dbg !15
  %6 = getelementptr i8, ptr %5, i64 8, !dbg !15
  store i64 2, ptr %6, align 8, !dbg !15
  %.repack4 = getelementptr i8, ptr %5, i64 16, !dbg !15
  store i64 0, ptr %.repack4, align 8, !dbg !15
  %.repack4.repack6 = getelementptr i8, ptr %5, i64 24, !dbg !15
  store ptr %1, ptr %.repack4.repack6, align 8, !dbg !15
  ret ptr %5, !dbg !15
}

define weak_odr ptr @_RC2n5() local_unnamed_addr !dbg !16 {
  %1 = tail call align 8 dereferenceable_or_null(32) ptr @__reussir_allocate(i64 8, i64 32), !dbg !17
  store i64 1, ptr %1, align 8, !dbg !17
  %2 = getelementptr i8, ptr %1, i64 8, !dbg !17
  store ptr @"_RNvNvC2n5s1_8$closure6vtable", ptr %2, align 8, !dbg !17, !invariant.group !3
  %3 = getelementptr i8, ptr %1, i64 16, !dbg !17
  %4 = getelementptr i8, ptr %1, i64 24, !dbg !17
  store ptr %4, ptr %3, align 8, !dbg !17
  %5 = tail call align 8 dereferenceable_or_null(32) ptr @__reussir_allocate(i64 8, i64 32), !dbg !18
  store i64 1, ptr %5, align 8, !dbg !18
  %6 = getelementptr i8, ptr %5, i64 8, !dbg !18
  store i64 2, ptr %6, align 8, !dbg !18
  %.repack4 = getelementptr i8, ptr %5, i64 16, !dbg !18
  store i64 0, ptr %.repack4, align 8, !dbg !18
  %.repack4.repack6 = getelementptr i8, ptr %5, i64 24, !dbg !18
  store ptr %1, ptr %.repack4.repack6, align 8, !dbg !18
  ret ptr %5, !dbg !18
}

define weak_odr ptr @_RC3ap2(ptr %0, ptr %1, ptr %2) local_unnamed_addr !dbg !19 {
  %4 = getelementptr i8, ptr %0, i64 8, !dbg !20
  %5 = load i64, ptr %4, align 8, !dbg !20
  %6 = icmp ult i64 %5, 3, !dbg !20
  tail call void @llvm.assume(i1 %6), !dbg !20
  %switch = icmp samesign ult i64 %5, 2, !dbg !20
  br i1 %switch, label %.thread57.sink.split, label %7, !dbg !20

7:                                                ; preds = %3
  %8 = getelementptr i8, ptr %0, i64 24, !dbg !20
  %9 = load ptr, ptr %8, align 8, !dbg !20
  %10 = load i64, ptr %0, align 8, !dbg !20
  %11 = add i64 %10, -1, !dbg !20
  store i64 %11, ptr %0, align 8, !dbg !20
  %12 = icmp eq i64 %10, 1, !dbg !20
  %.pr = load i64, ptr %9, align 8, !dbg !20
  br i1 %12, label %15, label %.thread, !dbg !20

.thread:                                          ; preds = %7
  %13 = add i64 %.pr, 1, !dbg !20
  store i64 %13, ptr %9, align 8, !dbg !20
  %14 = icmp ne i64 %.pr, 0, !dbg !20
  tail call void @llvm.assume(i1 %14), !dbg !20
  br label %17, !dbg !20

15:                                               ; preds = %7
  %16 = icmp eq i64 %.pr, 1, !dbg !20
  br i1 %16, label %25, label %17, !dbg !20

17:                                               ; preds = %.thread, %15
  %18 = phi ptr [ null, %.thread ], [ %0, %15 ]
  %19 = getelementptr i8, ptr %9, i64 8, !dbg !20
  %20 = load ptr, ptr %19, align 8, !dbg !20, !invariant.group !3
  %21 = getelementptr i8, ptr %20, i64 8, !dbg !20
  %22 = load ptr, ptr %21, align 8, !dbg !20, !invariant.group !3
  %23 = tail call ptr %22(ptr nonnull %9), !dbg !20
  %24 = load ptr, ptr %20, align 8, !dbg !20, !invariant.group !3
  tail call void %24(ptr nonnull %9), !dbg !20
  br label %25, !dbg !20

default.unreachable:                              ; preds = %25
  unreachable

25:                                               ; preds = %15, %17
  %26 = phi ptr [ %18, %17 ], [ %0, %15 ]
  %27 = phi ptr [ %23, %17 ], [ %9, %15 ], !dbg !20
  %28 = getelementptr i8, ptr %27, i64 16, !dbg !20
  %29 = load ptr, ptr %28, align 8, !dbg !20
  %30 = ptrtoint ptr %29 to i64, !dbg !20
  %31 = sub i64 0, %30, !dbg !20
  %32 = and i64 %31, 7, !dbg !20
  %33 = add nuw i64 %32, %30, !dbg !20
  %34 = inttoptr i64 %33 to ptr, !dbg !20
  store ptr %1, ptr %34, align 8, !dbg !20, !invariant.group !3
  %35 = add nuw i64 %33, 8, !dbg !20
  %36 = inttoptr i64 %35 to ptr, !dbg !20
  store ptr %36, ptr %28, align 8, !dbg !20
  %37 = getelementptr i8, ptr %27, i64 8, !dbg !20
  %38 = load ptr, ptr %37, align 8, !dbg !20, !invariant.group !3
  %39 = getelementptr i8, ptr %38, i64 16, !dbg !20
  %40 = load ptr, ptr %39, align 8, !dbg !20, !invariant.group !3
  %41 = tail call ptr %40(ptr %27), !dbg !20
  tail call void @__reussir_deallocate(ptr %26, i64 8, i64 32), !dbg !20
  %.phi.trans.insert = getelementptr i8, ptr %41, i64 8
  %.pre = load i64, ptr %.phi.trans.insert, align 8, !dbg !21
  %42 = icmp ult i64 %.pre, 3, !dbg !21
  tail call void @llvm.assume(i1 %42), !dbg !21
  %43 = trunc nuw nsw i64 %.pre to i32, !dbg !21
  switch i32 %43, label %default.unreachable [
    i32 0, label %44
    i32 1, label %.thread57
    i32 2, label %52
  ], !dbg !21

44:                                               ; preds = %25
  %.unpack46.unpack.cast = ptrtoint ptr %41 to i64, !dbg !21
  %45 = tail call align 8 dereferenceable_or_null(32) ptr @__reussir_allocate(i64 8, i64 32), !dbg !21
  store i64 1, ptr %45, align 8, !dbg !21
  %46 = getelementptr i8, ptr %45, i64 8, !dbg !21
  store i64 1, ptr %46, align 8, !dbg !21
  %.repack50 = getelementptr i8, ptr %45, i64 16, !dbg !21
  store i64 %.unpack46.unpack.cast, ptr %.repack50, align 8, !dbg !21
  %.repack50.repack52 = getelementptr i8, ptr %45, i64 24, !dbg !21
  store ptr %2, ptr %.repack50.repack52, align 8, !dbg !21
  br label %87, !dbg !21

.thread57.sink.split:                             ; preds = %3
  %.unpack20.unpack.cast = ptrtoint ptr %0 to i64, !dbg !20
  %47 = tail call align 8 dereferenceable_or_null(32) ptr @__reussir_allocate(i64 8, i64 32), !dbg !20
  store i64 1, ptr %47, align 8, !dbg !20
  %48 = getelementptr i8, ptr %47, i64 8, !dbg !20
  store i64 1, ptr %48, align 8, !dbg !20
  %.repack24 = getelementptr i8, ptr %47, i64 16, !dbg !20
  store i64 %.unpack20.unpack.cast, ptr %.repack24, align 8, !dbg !20
  %.repack24.repack26 = getelementptr i8, ptr %47, i64 24, !dbg !20
  store ptr %1, ptr %.repack24.repack26, align 8, !dbg !20
  br label %.thread57, !dbg !21

.thread57:                                        ; preds = %.thread57.sink.split, %25
  %49 = phi ptr [ %41, %25 ], [ %47, %.thread57.sink.split ]
  %.unpack33.unpack.cast = ptrtoint ptr %49 to i64, !dbg !21
  %50 = tail call align 8 dereferenceable_or_null(32) ptr @__reussir_allocate(i64 8, i64 32), !dbg !21
  store i64 1, ptr %50, align 8, !dbg !21
  %51 = getelementptr i8, ptr %50, i64 8, !dbg !21
  store i64 1, ptr %51, align 8, !dbg !21
  %.repack37 = getelementptr i8, ptr %50, i64 16, !dbg !21
  store i64 %.unpack33.unpack.cast, ptr %.repack37, align 8, !dbg !21
  %.repack37.repack39 = getelementptr i8, ptr %50, i64 24, !dbg !21
  store ptr %2, ptr %.repack37.repack39, align 8, !dbg !21
  br label %87, !dbg !21

52:                                               ; preds = %25
  %53 = getelementptr i8, ptr %41, i64 24, !dbg !21
  %54 = load ptr, ptr %53, align 8, !dbg !21
  %55 = load i64, ptr %41, align 8, !dbg !21
  %56 = add i64 %55, -1, !dbg !21
  store i64 %56, ptr %41, align 8, !dbg !21
  %57 = icmp eq i64 %55, 1, !dbg !21
  %.pr55 = load i64, ptr %54, align 8, !dbg !21
  br i1 %57, label %60, label %.thread56, !dbg !21

.thread56:                                        ; preds = %52
  %58 = add i64 %.pr55, 1, !dbg !21
  store i64 %58, ptr %54, align 8, !dbg !21
  %59 = icmp ne i64 %.pr55, 0, !dbg !21
  tail call void @llvm.assume(i1 %59), !dbg !21
  br label %62, !dbg !21

60:                                               ; preds = %52
  %61 = icmp eq i64 %.pr55, 1, !dbg !21
  br i1 %61, label %70, label %62, !dbg !21

62:                                               ; preds = %.thread56, %60
  %63 = phi ptr [ null, %.thread56 ], [ %41, %60 ]
  %64 = getelementptr i8, ptr %54, i64 8, !dbg !21
  %65 = load ptr, ptr %64, align 8, !dbg !21, !invariant.group !3
  %66 = getelementptr i8, ptr %65, i64 8, !dbg !21
  %67 = load ptr, ptr %66, align 8, !dbg !21, !invariant.group !3
  %68 = tail call ptr %67(ptr nonnull %54), !dbg !21
  %69 = load ptr, ptr %65, align 8, !dbg !21, !invariant.group !3
  tail call void %69(ptr nonnull %54), !dbg !21
  br label %70, !dbg !21

70:                                               ; preds = %62, %60
  %71 = phi ptr [ %63, %62 ], [ %41, %60 ]
  %72 = phi ptr [ %68, %62 ], [ %54, %60 ], !dbg !21
  %73 = getelementptr i8, ptr %72, i64 16, !dbg !21
  %74 = load ptr, ptr %73, align 8, !dbg !21
  %75 = ptrtoint ptr %74 to i64, !dbg !21
  %76 = sub i64 0, %75, !dbg !21
  %77 = and i64 %76, 7, !dbg !21
  %78 = add nuw i64 %77, %75, !dbg !21
  %79 = inttoptr i64 %78 to ptr, !dbg !21
  store ptr %2, ptr %79, align 8, !dbg !21, !invariant.group !3
  %80 = add nuw i64 %78, 8, !dbg !21
  %81 = inttoptr i64 %80 to ptr, !dbg !21
  store ptr %81, ptr %73, align 8, !dbg !21
  %82 = getelementptr i8, ptr %72, i64 8, !dbg !21
  %83 = load ptr, ptr %82, align 8, !dbg !21, !invariant.group !3
  %84 = getelementptr i8, ptr %83, i64 16, !dbg !21
  %85 = load ptr, ptr %84, align 8, !dbg !21, !invariant.group !3
  %86 = tail call ptr %85(ptr %72), !dbg !21
  tail call void @__reussir_deallocate(ptr %71, i64 8, i64 32), !dbg !21
  br label %87, !dbg !21

87:                                               ; preds = %44, %.thread57, %70
  %88 = phi ptr [ %86, %70 ], [ %50, %.thread57 ], [ %45, %44 ], !dbg !21
  ret ptr %88, !dbg !21
}

define weak_odr ptr @_RC3suc(ptr %0) local_unnamed_addr !dbg !22 {
  %2 = tail call align 8 dereferenceable_or_null(40) ptr @__reussir_allocate(i64 8, i64 40), !dbg !23
  store i64 1, ptr %2, align 8, !dbg !23
  %3 = getelementptr i8, ptr %2, i64 8, !dbg !23
  store ptr @"_RNvNvC3sucs1_8$closure6vtable", ptr %3, align 8, !dbg !23, !invariant.group !3
  %4 = getelementptr i8, ptr %2, i64 16, !dbg !23
  %5 = getelementptr i8, ptr %2, i64 24, !dbg !23
  %6 = ptrtoint ptr %5 to i64, !dbg !23
  store ptr %0, ptr %5, align 8, !dbg !23, !invariant.group !3
  %7 = add nuw i64 %6, 8, !dbg !23
  %8 = inttoptr i64 %7 to ptr, !dbg !23
  store ptr %8, ptr %4, align 8, !dbg !23
  %9 = tail call align 8 dereferenceable_or_null(32) ptr @__reussir_allocate(i64 8, i64 32), !dbg !24
  store i64 1, ptr %9, align 8, !dbg !24
  %10 = getelementptr i8, ptr %9, i64 8, !dbg !24
  store i64 2, ptr %10, align 8, !dbg !24
  %.repack4 = getelementptr i8, ptr %9, i64 16, !dbg !24
  store i64 0, ptr %.repack4, align 8, !dbg !24
  %.repack4.repack6 = getelementptr i8, ptr %9, i64 24, !dbg !24
  store ptr %2, ptr %.repack4.repack6, align 8, !dbg !24
  ret ptr %9, !dbg !24
}

define weak_odr ptr @_RC2n2() local_unnamed_addr !dbg !25 {
  %1 = tail call align 8 dereferenceable_or_null(32) ptr @__reussir_allocate(i64 8, i64 32), !dbg !26
  store i64 1, ptr %1, align 8, !dbg !26
  %2 = getelementptr i8, ptr %1, i64 8, !dbg !26
  store ptr @"_RNvNvC2n2s1_8$closure6vtable", ptr %2, align 8, !dbg !26, !invariant.group !3
  %3 = getelementptr i8, ptr %1, i64 16, !dbg !26
  %4 = getelementptr i8, ptr %1, i64 24, !dbg !26
  store ptr %4, ptr %3, align 8, !dbg !26
  %5 = tail call align 8 dereferenceable_or_null(32) ptr @__reussir_allocate(i64 8, i64 32), !dbg !27
  store i64 1, ptr %5, align 8, !dbg !27
  %6 = getelementptr i8, ptr %5, i64 8, !dbg !27
  store i64 2, ptr %6, align 8, !dbg !27
  %.repack4 = getelementptr i8, ptr %5, i64 16, !dbg !27
  store i64 0, ptr %.repack4, align 8, !dbg !27
  %.repack4.repack6 = getelementptr i8, ptr %5, i64 24, !dbg !27
  store ptr %1, ptr %.repack4.repack6, align 8, !dbg !27
  ret ptr %5, !dbg !27
}

define weak_odr ptr @_RC2ap(ptr %0, ptr %1) local_unnamed_addr !dbg !28 {
  %3 = getelementptr i8, ptr %0, i64 8, !dbg !29
  %4 = load i64, ptr %3, align 8, !dbg !29
  %5 = icmp ult i64 %4, 3, !dbg !29
  tail call void @llvm.assume(i1 %5), !dbg !29
  %6 = trunc nuw nsw i64 %4 to i32, !dbg !29
  switch i32 %6, label %default.unreachable [
    i32 0, label %7
    i32 1, label %10
    i32 2, label %13
  ], !dbg !29

7:                                                ; preds = %2
  %.unpack19.unpack.cast = ptrtoint ptr %0 to i64, !dbg !30
  %8 = tail call align 8 dereferenceable_or_null(32) ptr @__reussir_allocate(i64 8, i64 32), !dbg !30
  store i64 1, ptr %8, align 8, !dbg !30
  %9 = getelementptr i8, ptr %8, i64 8, !dbg !30
  store i64 1, ptr %9, align 8, !dbg !30
  %.repack23 = getelementptr i8, ptr %8, i64 16, !dbg !30
  store i64 %.unpack19.unpack.cast, ptr %.repack23, align 8, !dbg !30
  %.repack23.repack25 = getelementptr i8, ptr %8, i64 24, !dbg !30
  store ptr %1, ptr %.repack23.repack25, align 8, !dbg !30
  br label %48, !dbg !29

10:                                               ; preds = %2
  %.unpack6.unpack.cast = ptrtoint ptr %0 to i64, !dbg !30
  %11 = tail call align 8 dereferenceable_or_null(32) ptr @__reussir_allocate(i64 8, i64 32), !dbg !30
  store i64 1, ptr %11, align 8, !dbg !30
  %12 = getelementptr i8, ptr %11, i64 8, !dbg !30
  store i64 1, ptr %12, align 8, !dbg !30
  %.repack10 = getelementptr i8, ptr %11, i64 16, !dbg !30
  store i64 %.unpack6.unpack.cast, ptr %.repack10, align 8, !dbg !30
  %.repack10.repack12 = getelementptr i8, ptr %11, i64 24, !dbg !30
  store ptr %1, ptr %.repack10.repack12, align 8, !dbg !30
  br label %48, !dbg !29

13:                                               ; preds = %2
  %14 = getelementptr i8, ptr %0, i64 24, !dbg !29
  %15 = load ptr, ptr %14, align 8, !dbg !29
  %16 = load i64, ptr %0, align 8, !dbg !29
  %17 = add i64 %16, -1, !dbg !29
  store i64 %17, ptr %0, align 8, !dbg !29
  %18 = icmp eq i64 %16, 1, !dbg !29
  %.pr = load i64, ptr %15, align 8, !dbg !31
  br i1 %18, label %21, label %.thread, !dbg !29

.thread:                                          ; preds = %13
  %19 = add i64 %.pr, 1, !dbg !29
  store i64 %19, ptr %15, align 8, !dbg !29
  %20 = icmp ne i64 %.pr, 0, !dbg !29
  tail call void @llvm.assume(i1 %20), !dbg !29
  br label %23, !dbg !32

21:                                               ; preds = %13
  %22 = icmp eq i64 %.pr, 1, !dbg !32
  br i1 %22, label %31, label %23, !dbg !32

23:                                               ; preds = %.thread, %21
  %24 = phi ptr [ null, %.thread ], [ %0, %21 ]
  %25 = getelementptr i8, ptr %15, i64 8, !dbg !32
  %26 = load ptr, ptr %25, align 8, !dbg !32, !invariant.group !3
  %27 = getelementptr i8, ptr %26, i64 8, !dbg !32
  %28 = load ptr, ptr %27, align 8, !dbg !32, !invariant.group !3
  %29 = tail call ptr %28(ptr nonnull %15), !dbg !32
  %30 = load ptr, ptr %26, align 8, !dbg !32, !invariant.group !3
  tail call void %30(ptr nonnull %15), !dbg !32
  br label %31, !dbg !32

31:                                               ; preds = %23, %21
  %32 = phi ptr [ %24, %23 ], [ %0, %21 ]
  %33 = phi ptr [ %29, %23 ], [ %15, %21 ], !dbg !32
  %34 = getelementptr i8, ptr %33, i64 16, !dbg !32
  %35 = load ptr, ptr %34, align 8, !dbg !32
  %36 = ptrtoint ptr %35 to i64, !dbg !32
  %37 = sub i64 0, %36, !dbg !32
  %38 = and i64 %37, 7, !dbg !32
  %39 = add nuw i64 %38, %36, !dbg !32
  %40 = inttoptr i64 %39 to ptr, !dbg !32
  store ptr %1, ptr %40, align 8, !dbg !32, !invariant.group !3
  %41 = add nuw i64 %39, 8, !dbg !32
  %42 = inttoptr i64 %41 to ptr, !dbg !32
  store ptr %42, ptr %34, align 8, !dbg !32
  %43 = getelementptr i8, ptr %33, i64 8, !dbg !32
  %44 = load ptr, ptr %43, align 8, !dbg !32, !invariant.group !3
  %45 = getelementptr i8, ptr %44, i64 16, !dbg !32
  %46 = load ptr, ptr %45, align 8, !dbg !32, !invariant.group !3
  %47 = tail call ptr %46(ptr %33), !dbg !32
  tail call void @__reussir_deallocate(ptr %32, i64 8, i64 32), !dbg !29
  br label %48, !dbg !29

default.unreachable:                              ; preds = %2
  unreachable

48:                                               ; preds = %7, %10, %31
  %49 = phi ptr [ %47, %31 ], [ %11, %10 ], [ %8, %7 ], !dbg !29
  ret ptr %49, !dbg !29
}

define weak_odr i64 @_RC12hoascbv_test() local_unnamed_addr !dbg !33 {
  %1 = tail call align 8 dereferenceable_or_null(32) ptr @__reussir_allocate(i64 8, i64 32), !dbg !34
  store i64 1, ptr %1, align 8, !dbg !34
  %2 = getelementptr i8, ptr %1, i64 8, !dbg !34
  store ptr @"_RNvNvC12hoascbv_tests3_8$closure6vtable", ptr %2, align 8, !dbg !34, !invariant.group !3
  %3 = getelementptr i8, ptr %1, i64 16, !dbg !34
  %4 = getelementptr i8, ptr %1, i64 24, !dbg !34
  store ptr %4, ptr %3, align 8, !dbg !34
  %5 = tail call align 8 dereferenceable_or_null(32) ptr @__reussir_allocate(i64 8, i64 32), !dbg !35
  store i64 1, ptr %5, align 8, !dbg !35
  %6 = getelementptr i8, ptr %5, i64 8, !dbg !35
  store ptr @"_RNvNvC12hoascbv_tests5_8$closure6vtable", ptr %6, align 8, !dbg !35, !invariant.group !3
  %7 = getelementptr i8, ptr %5, i64 16, !dbg !35
  %8 = getelementptr i8, ptr %5, i64 24, !dbg !35
  store ptr %8, ptr %7, align 8, !dbg !35
  %9 = tail call align 8 dereferenceable_or_null(32) ptr @__reussir_allocate(i64 8, i64 32), !dbg !35
  store i64 1, ptr %9, align 8, !dbg !35
  %10 = getelementptr i8, ptr %9, i64 8, !dbg !35
  store i64 2, ptr %10, align 8, !dbg !35
  %.repack38 = getelementptr i8, ptr %9, i64 16, !dbg !35
  store i64 0, ptr %.repack38, align 8, !dbg !35
  %.repack38.repack40 = getelementptr i8, ptr %9, i64 24, !dbg !35
  store ptr %5, ptr %.repack38.repack40, align 8, !dbg !35
  %11 = tail call align 8 dereferenceable_or_null(32) ptr @__reussir_allocate(i64 8, i64 32), !dbg !36
  store i64 1, ptr %11, align 8, !dbg !36
  %12 = getelementptr i8, ptr %11, i64 8, !dbg !36
  store ptr @"_RNvNvC12hoascbv_tests7_8$closure6vtable", ptr %12, align 8, !dbg !36, !invariant.group !3
  %13 = getelementptr i8, ptr %11, i64 16, !dbg !36
  %14 = getelementptr i8, ptr %11, i64 24, !dbg !36
  store ptr %14, ptr %13, align 8, !dbg !36
  %15 = tail call align 8 dereferenceable_or_null(32) ptr @__reussir_allocate(i64 8, i64 32), !dbg !36
  store i64 1, ptr %15, align 8, !dbg !36
  %16 = getelementptr i8, ptr %15, i64 8, !dbg !36
  store i64 2, ptr %16, align 8, !dbg !36
  %.repack42 = getelementptr i8, ptr %15, i64 16, !dbg !36
  store i64 0, ptr %.repack42, align 8, !dbg !36
  %.repack42.repack44 = getelementptr i8, ptr %15, i64 24, !dbg !36
  store ptr %11, ptr %.repack42.repack44, align 8, !dbg !36
  %.pr = load i64, ptr %1, align 8, !dbg !37
  %17 = icmp eq i64 %.pr, 1, !dbg !37
  br i1 %17, label %"_RNvNvC12hoascbv_tests3_8$closure4drop.exit", label %18, !dbg !37

18:                                               ; preds = %0
  %19 = tail call align 8 dereferenceable_or_null(32) ptr @__reussir_allocate(i64 8, i64 32), !dbg !37
  store i64 1, ptr %19, align 8, !dbg !37
  %20 = getelementptr i8, ptr %19, i64 8, !dbg !37
  %21 = load ptr, ptr %3, align 8, !dbg !37
  %22 = ptrtoint ptr %2 to i64, !dbg !37
  %23 = ptrtoint ptr %20 to i64, !dbg !37
  %24 = ptrtoint ptr %21 to i64, !dbg !37
  %25 = sub nuw nsw i64 %24, %22, !dbg !37
  %26 = add nuw nsw i64 %22, 8, !dbg !37
  %27 = inttoptr i64 %26 to ptr, !dbg !37
  %28 = add nuw nsw i64 %23, 8, !dbg !37
  %29 = inttoptr i64 %28 to ptr, !dbg !37
  tail call void @llvm.memcpy.inline.p0.p0.i64(ptr nonnull align 8 %29, ptr nonnull align 8 %27, i64 16, i1 false), !dbg !37
  store ptr @"_RNvNvC12hoascbv_tests3_8$closure6vtable", ptr %20, align 8, !dbg !37, !invariant.group !3
  %30 = getelementptr inbounds i8, ptr %20, i64 %25, !dbg !37
  %31 = getelementptr i8, ptr %19, i64 16, !dbg !37
  store ptr %30, ptr %31, align 8, !dbg !37
  %32 = icmp ugt ptr %21, %4, !dbg !37
  br i1 %32, label %33, label %"_RNvNvC12hoascbv_tests3_8$closure5clone.exit", !dbg !37

33:                                               ; preds = %18
  %34 = getelementptr i8, ptr %19, i64 24, !dbg !37
  %35 = load ptr, ptr %34, align 8, !dbg !37, !invariant.group !3
  %36 = load i64, ptr %35, align 8, !dbg !37
  %37 = add i64 %36, 1, !dbg !37
  store i64 %37, ptr %35, align 8, !dbg !37
  %38 = icmp ne i64 %36, 0, !dbg !37
  tail call void @llvm.assume(i1 %38), !dbg !37
  br label %"_RNvNvC12hoascbv_tests3_8$closure5clone.exit", !dbg !37

"_RNvNvC12hoascbv_tests3_8$closure5clone.exit":   ; preds = %18, %33
  %39 = load i64, ptr %1, align 8, !dbg !37
  %40 = add i64 %39, -1, !dbg !37
  store i64 %40, ptr %1, align 8, !dbg !37
  %41 = icmp eq i64 %39, 1, !dbg !37
  br i1 %41, label %42, label %"_RNvNvC12hoascbv_tests3_8$closure4drop.exit", !dbg !37

42:                                               ; preds = %"_RNvNvC12hoascbv_tests3_8$closure5clone.exit"
  %43 = load ptr, ptr %3, align 8, !dbg !37
  %44 = icmp ugt ptr %43, %4, !dbg !37
  br i1 %44, label %45, label %54, !dbg !37

45:                                               ; preds = %42
  %46 = load ptr, ptr %4, align 8, !dbg !37
  %47 = load i64, ptr %46, align 8, !dbg !37
  %48 = add i64 %47, -1, !dbg !37
  store i64 %48, ptr %46, align 8, !dbg !37
  %49 = icmp eq i64 %47, 1, !dbg !37
  br i1 %49, label %50, label %52, !dbg !37

50:                                               ; preds = %45
  %51 = getelementptr i8, ptr %46, i64 8, !dbg !37
  tail call void @_RINvNvC4core9intrinsic13drop_in_placeC5ValueE(ptr %51), !dbg !37
  br label %52, !dbg !37

52:                                               ; preds = %50, %45
  %53 = phi ptr [ %46, %50 ], [ null, %45 ], !dbg !37
  tail call void @__reussir_deallocate(ptr %53, i64 8, i64 32), !dbg !37
  br label %54, !dbg !37

54:                                               ; preds = %52, %42
  tail call void @__reussir_deallocate(ptr nonnull %1, i64 8, i64 32), !dbg !37
  br label %"_RNvNvC12hoascbv_tests3_8$closure4drop.exit", !dbg !37

default.unreachable:                              ; preds = %"_RNvNvC12hoascbv_testsB_8$closure4drop.exit", %"_RNvNvC12hoascbv_tests3_8$closure4drop.exit"
  unreachable

"_RNvNvC12hoascbv_tests3_8$closure4drop.exit":    ; preds = %54, %"_RNvNvC12hoascbv_tests3_8$closure5clone.exit", %0
  %55 = phi ptr [ %1, %0 ], [ %19, %"_RNvNvC12hoascbv_tests3_8$closure5clone.exit" ], [ %19, %54 ], !dbg !37
  %56 = getelementptr i8, ptr %55, i64 16, !dbg !37
  %57 = load ptr, ptr %56, align 8, !dbg !37
  %58 = ptrtoint ptr %57 to i64, !dbg !37
  %59 = sub i64 0, %58, !dbg !37
  %60 = and i64 %59, 7, !dbg !37
  %61 = add nuw i64 %60, %58, !dbg !37
  %62 = inttoptr i64 %61 to ptr, !dbg !37
  store ptr %9, ptr %62, align 8, !dbg !37, !invariant.group !3
  %63 = add nuw i64 %61, 8, !dbg !37
  %64 = inttoptr i64 %63 to ptr, !dbg !37
  store ptr %64, ptr %56, align 8, !dbg !37
  %65 = getelementptr i8, ptr %55, i64 8, !dbg !37
  %66 = load ptr, ptr %65, align 8, !dbg !37, !invariant.group !3
  %67 = getelementptr i8, ptr %66, i64 16, !dbg !37
  %68 = load ptr, ptr %67, align 8, !dbg !37, !invariant.group !3
  %69 = tail call ptr %68(ptr nonnull %55), !dbg !37
  %.phi.trans.insert = getelementptr i8, ptr %69, i64 8
  %.pre = load i64, ptr %.phi.trans.insert, align 8, !dbg !37
  %70 = icmp ult i64 %.pre, 3, !dbg !37
  tail call void @llvm.assume(i1 %70), !dbg !37
  %71 = trunc nuw nsw i64 %.pre to i32, !dbg !37
  switch i32 %71, label %default.unreachable [
    i32 0, label %72
    i32 1, label %75
    i32 2, label %78
  ], !dbg !37

72:                                               ; preds = %"_RNvNvC12hoascbv_tests3_8$closure4drop.exit"
  %.unpack90.unpack.cast = ptrtoint ptr %69 to i64, !dbg !37
  %73 = tail call align 8 dereferenceable_or_null(32) ptr @__reussir_allocate(i64 8, i64 32), !dbg !37
  store i64 1, ptr %73, align 8, !dbg !37
  %74 = getelementptr i8, ptr %73, i64 8, !dbg !37
  store i64 1, ptr %74, align 8, !dbg !37
  %.repack94 = getelementptr i8, ptr %73, i64 16, !dbg !37
  store i64 %.unpack90.unpack.cast, ptr %.repack94, align 8, !dbg !37
  %.repack94.repack96 = getelementptr i8, ptr %73, i64 24, !dbg !37
  store ptr %15, ptr %.repack94.repack96, align 8, !dbg !37
  br label %113, !dbg !37

75:                                               ; preds = %"_RNvNvC12hoascbv_tests3_8$closure4drop.exit"
  %.unpack77.unpack.cast = ptrtoint ptr %69 to i64, !dbg !37
  %76 = tail call align 8 dereferenceable_or_null(32) ptr @__reussir_allocate(i64 8, i64 32), !dbg !37
  store i64 1, ptr %76, align 8, !dbg !37
  %77 = getelementptr i8, ptr %76, i64 8, !dbg !37
  store i64 1, ptr %77, align 8, !dbg !37
  %.repack81 = getelementptr i8, ptr %76, i64 16, !dbg !37
  store i64 %.unpack77.unpack.cast, ptr %.repack81, align 8, !dbg !37
  %.repack81.repack83 = getelementptr i8, ptr %76, i64 24, !dbg !37
  store ptr %15, ptr %.repack81.repack83, align 8, !dbg !37
  br label %113, !dbg !37

78:                                               ; preds = %"_RNvNvC12hoascbv_tests3_8$closure4drop.exit"
  %79 = getelementptr i8, ptr %69, i64 24, !dbg !37
  %80 = load ptr, ptr %79, align 8, !dbg !37
  %81 = load i64, ptr %69, align 8, !dbg !37
  %82 = add i64 %81, -1, !dbg !37
  store i64 %82, ptr %69, align 8, !dbg !37
  %83 = icmp eq i64 %81, 1, !dbg !37
  %.pr216 = load i64, ptr %80, align 8, !dbg !37
  br i1 %83, label %86, label %.thread217, !dbg !37

.thread217:                                       ; preds = %78
  %84 = add i64 %.pr216, 1, !dbg !37
  store i64 %84, ptr %80, align 8, !dbg !37
  %85 = icmp ne i64 %.pr216, 0, !dbg !37
  tail call void @llvm.assume(i1 %85), !dbg !37
  br label %88, !dbg !37

86:                                               ; preds = %78
  %87 = icmp eq i64 %.pr216, 1, !dbg !37
  br i1 %87, label %96, label %88, !dbg !37

88:                                               ; preds = %.thread217, %86
  %89 = phi ptr [ null, %.thread217 ], [ %69, %86 ]
  %90 = getelementptr i8, ptr %80, i64 8, !dbg !37
  %91 = load ptr, ptr %90, align 8, !dbg !37, !invariant.group !3
  %92 = getelementptr i8, ptr %91, i64 8, !dbg !37
  %93 = load ptr, ptr %92, align 8, !dbg !37, !invariant.group !3
  %94 = tail call ptr %93(ptr nonnull %80), !dbg !37
  %95 = load ptr, ptr %91, align 8, !dbg !37, !invariant.group !3
  tail call void %95(ptr nonnull %80), !dbg !37
  br label %96, !dbg !37

96:                                               ; preds = %88, %86
  %97 = phi ptr [ %89, %88 ], [ %69, %86 ]
  %98 = phi ptr [ %94, %88 ], [ %80, %86 ], !dbg !37
  %99 = getelementptr i8, ptr %98, i64 16, !dbg !37
  %100 = load ptr, ptr %99, align 8, !dbg !37
  %101 = ptrtoint ptr %100 to i64, !dbg !37
  %102 = sub i64 0, %101, !dbg !37
  %103 = and i64 %102, 7, !dbg !37
  %104 = add nuw i64 %103, %101, !dbg !37
  %105 = inttoptr i64 %104 to ptr, !dbg !37
  store ptr %15, ptr %105, align 8, !dbg !37, !invariant.group !3
  %106 = add nuw i64 %104, 8, !dbg !37
  %107 = inttoptr i64 %106 to ptr, !dbg !37
  store ptr %107, ptr %99, align 8, !dbg !37
  %108 = getelementptr i8, ptr %98, i64 8, !dbg !37
  %109 = load ptr, ptr %108, align 8, !dbg !37, !invariant.group !3
  %110 = getelementptr i8, ptr %109, i64 16, !dbg !37
  %111 = load ptr, ptr %110, align 8, !dbg !37, !invariant.group !3
  %112 = tail call ptr %111(ptr %98), !dbg !37
  tail call void @__reussir_deallocate(ptr %97, i64 8, i64 32), !dbg !37
  br label %113, !dbg !37

113:                                              ; preds = %72, %75, %96
  %114 = phi ptr [ %112, %96 ], [ %76, %75 ], [ %73, %72 ], !dbg !37
  %115 = tail call align 8 dereferenceable_or_null(32) ptr @__reussir_allocate(i64 8, i64 32), !dbg !38
  store i64 1, ptr %115, align 8, !dbg !38
  %116 = getelementptr i8, ptr %115, i64 8, !dbg !38
  store ptr @"_RNvNvC12hoascbv_testsB_8$closure6vtable", ptr %116, align 8, !dbg !38, !invariant.group !3
  %117 = getelementptr i8, ptr %115, i64 16, !dbg !38
  %118 = getelementptr i8, ptr %115, i64 24, !dbg !38
  store ptr %118, ptr %117, align 8, !dbg !38
  %119 = tail call align 8 dereferenceable_or_null(32) ptr @__reussir_allocate(i64 8, i64 32), !dbg !39
  store i64 1, ptr %119, align 8, !dbg !39
  %120 = getelementptr i8, ptr %119, i64 8, !dbg !39
  store ptr @"_RNvNvC12hoascbv_testsD_8$closure6vtable", ptr %120, align 8, !dbg !39, !invariant.group !3
  %121 = getelementptr i8, ptr %119, i64 16, !dbg !39
  %122 = getelementptr i8, ptr %119, i64 24, !dbg !39
  store ptr %122, ptr %121, align 8, !dbg !39
  %123 = tail call align 8 dereferenceable_or_null(32) ptr @__reussir_allocate(i64 8, i64 32), !dbg !39
  store i64 1, ptr %123, align 8, !dbg !39
  %124 = getelementptr i8, ptr %123, i64 8, !dbg !39
  store i64 2, ptr %124, align 8, !dbg !39
  %.repack120 = getelementptr i8, ptr %123, i64 16, !dbg !39
  store i64 0, ptr %.repack120, align 8, !dbg !39
  %.repack120.repack122 = getelementptr i8, ptr %123, i64 24, !dbg !39
  store ptr %119, ptr %.repack120.repack122, align 8, !dbg !39
  %.pr219 = load i64, ptr %115, align 8, !dbg !40
  %125 = icmp eq i64 %.pr219, 1, !dbg !40
  br i1 %125, label %"_RNvNvC12hoascbv_testsB_8$closure4drop.exit", label %126, !dbg !40

126:                                              ; preds = %113
  %127 = tail call align 8 dereferenceable_or_null(32) ptr @__reussir_allocate(i64 8, i64 32), !dbg !40
  store i64 1, ptr %127, align 8, !dbg !40
  %128 = getelementptr i8, ptr %127, i64 8, !dbg !40
  %129 = load ptr, ptr %117, align 8, !dbg !40
  %130 = ptrtoint ptr %116 to i64, !dbg !40
  %131 = ptrtoint ptr %128 to i64, !dbg !40
  %132 = ptrtoint ptr %129 to i64, !dbg !40
  %133 = sub nuw nsw i64 %132, %130, !dbg !40
  %134 = add nuw nsw i64 %130, 8, !dbg !40
  %135 = inttoptr i64 %134 to ptr, !dbg !40
  %136 = add nuw nsw i64 %131, 8, !dbg !40
  %137 = inttoptr i64 %136 to ptr, !dbg !40
  tail call void @llvm.memcpy.inline.p0.p0.i64(ptr nonnull align 8 %137, ptr nonnull align 8 %135, i64 16, i1 false), !dbg !40
  store ptr @"_RNvNvC12hoascbv_testsB_8$closure6vtable", ptr %128, align 8, !dbg !40, !invariant.group !3
  %138 = getelementptr inbounds i8, ptr %128, i64 %133, !dbg !40
  %139 = getelementptr i8, ptr %127, i64 16, !dbg !40
  store ptr %138, ptr %139, align 8, !dbg !40
  %140 = icmp ugt ptr %129, %118, !dbg !40
  br i1 %140, label %141, label %"_RNvNvC12hoascbv_testsB_8$closure5clone.exit", !dbg !40

141:                                              ; preds = %126
  %142 = getelementptr i8, ptr %127, i64 24, !dbg !40
  %143 = load ptr, ptr %142, align 8, !dbg !40, !invariant.group !3
  %144 = load i64, ptr %143, align 8, !dbg !40
  %145 = add i64 %144, 1, !dbg !40
  store i64 %145, ptr %143, align 8, !dbg !40
  %146 = icmp ne i64 %144, 0, !dbg !40
  tail call void @llvm.assume(i1 %146), !dbg !40
  br label %"_RNvNvC12hoascbv_testsB_8$closure5clone.exit", !dbg !40

"_RNvNvC12hoascbv_testsB_8$closure5clone.exit":   ; preds = %126, %141
  %147 = load i64, ptr %115, align 8, !dbg !40
  %148 = add i64 %147, -1, !dbg !40
  store i64 %148, ptr %115, align 8, !dbg !40
  %149 = icmp eq i64 %147, 1, !dbg !40
  br i1 %149, label %150, label %"_RNvNvC12hoascbv_testsB_8$closure4drop.exit", !dbg !40

150:                                              ; preds = %"_RNvNvC12hoascbv_testsB_8$closure5clone.exit"
  %151 = load ptr, ptr %117, align 8, !dbg !40
  %152 = icmp ugt ptr %151, %118, !dbg !40
  br i1 %152, label %153, label %162, !dbg !40

153:                                              ; preds = %150
  %154 = load ptr, ptr %118, align 8, !dbg !40
  %155 = load i64, ptr %154, align 8, !dbg !40
  %156 = add i64 %155, -1, !dbg !40
  store i64 %156, ptr %154, align 8, !dbg !40
  %157 = icmp eq i64 %155, 1, !dbg !40
  br i1 %157, label %158, label %160, !dbg !40

158:                                              ; preds = %153
  %159 = getelementptr i8, ptr %154, i64 8, !dbg !40
  tail call void @_RINvNvC4core9intrinsic13drop_in_placeC5ValueE(ptr %159), !dbg !40
  br label %160, !dbg !40

160:                                              ; preds = %158, %153
  %161 = phi ptr [ %154, %158 ], [ null, %153 ], !dbg !40
  tail call void @__reussir_deallocate(ptr %161, i64 8, i64 32), !dbg !40
  br label %162, !dbg !40

162:                                              ; preds = %160, %150
  tail call void @__reussir_deallocate(ptr nonnull %115, i64 8, i64 32), !dbg !40
  br label %"_RNvNvC12hoascbv_testsB_8$closure4drop.exit", !dbg !40

"_RNvNvC12hoascbv_testsB_8$closure4drop.exit":    ; preds = %162, %"_RNvNvC12hoascbv_testsB_8$closure5clone.exit", %113
  %163 = phi ptr [ %115, %113 ], [ %127, %"_RNvNvC12hoascbv_testsB_8$closure5clone.exit" ], [ %127, %162 ], !dbg !40
  %164 = getelementptr i8, ptr %163, i64 16, !dbg !40
  %165 = load ptr, ptr %164, align 8, !dbg !40
  %166 = ptrtoint ptr %165 to i64, !dbg !40
  %167 = sub i64 0, %166, !dbg !40
  %168 = and i64 %167, 7, !dbg !40
  %169 = add nuw i64 %168, %166, !dbg !40
  %170 = inttoptr i64 %169 to ptr, !dbg !40
  store ptr %123, ptr %170, align 8, !dbg !40, !invariant.group !3
  %171 = add nuw i64 %169, 8, !dbg !40
  %172 = inttoptr i64 %171 to ptr, !dbg !40
  store ptr %172, ptr %164, align 8, !dbg !40
  %173 = getelementptr i8, ptr %163, i64 8, !dbg !40
  %174 = load ptr, ptr %173, align 8, !dbg !40, !invariant.group !3
  %175 = getelementptr i8, ptr %174, i64 16, !dbg !40
  %176 = load ptr, ptr %175, align 8, !dbg !40, !invariant.group !3
  %177 = tail call ptr %176(ptr nonnull %163), !dbg !40
  %.phi.trans.insert224 = getelementptr i8, ptr %177, i64 8
  %.pre225 = load i64, ptr %.phi.trans.insert224, align 8, !dbg !40
  %178 = icmp ult i64 %.pre225, 3, !dbg !40
  tail call void @llvm.assume(i1 %178), !dbg !40
  %179 = trunc nuw nsw i64 %.pre225 to i32, !dbg !40
  switch i32 %179, label %default.unreachable [
    i32 0, label %180
    i32 1, label %183
    i32 2, label %186
  ], !dbg !40

180:                                              ; preds = %"_RNvNvC12hoascbv_testsB_8$closure4drop.exit"
  %.unpack168.unpack.cast = ptrtoint ptr %177 to i64, !dbg !40
  %181 = tail call align 8 dereferenceable_or_null(32) ptr @__reussir_allocate(i64 8, i64 32), !dbg !40
  store i64 1, ptr %181, align 8, !dbg !40
  %182 = getelementptr i8, ptr %181, i64 8, !dbg !40
  store i64 1, ptr %182, align 8, !dbg !40
  %.repack172 = getelementptr i8, ptr %181, i64 16, !dbg !40
  store i64 %.unpack168.unpack.cast, ptr %.repack172, align 8, !dbg !40
  %.repack172.repack174 = getelementptr i8, ptr %181, i64 24, !dbg !40
  store ptr %114, ptr %.repack172.repack174, align 8, !dbg !40
  br label %221, !dbg !40

183:                                              ; preds = %"_RNvNvC12hoascbv_testsB_8$closure4drop.exit"
  %.unpack155.unpack.cast = ptrtoint ptr %177 to i64, !dbg !40
  %184 = tail call align 8 dereferenceable_or_null(32) ptr @__reussir_allocate(i64 8, i64 32), !dbg !40
  store i64 1, ptr %184, align 8, !dbg !40
  %185 = getelementptr i8, ptr %184, i64 8, !dbg !40
  store i64 1, ptr %185, align 8, !dbg !40
  %.repack159 = getelementptr i8, ptr %184, i64 16, !dbg !40
  store i64 %.unpack155.unpack.cast, ptr %.repack159, align 8, !dbg !40
  %.repack159.repack161 = getelementptr i8, ptr %184, i64 24, !dbg !40
  store ptr %114, ptr %.repack159.repack161, align 8, !dbg !40
  br label %221, !dbg !40

186:                                              ; preds = %"_RNvNvC12hoascbv_testsB_8$closure4drop.exit"
  %187 = getelementptr i8, ptr %177, i64 24, !dbg !40
  %188 = load ptr, ptr %187, align 8, !dbg !40
  %189 = load i64, ptr %177, align 8, !dbg !40
  %190 = add i64 %189, -1, !dbg !40
  store i64 %190, ptr %177, align 8, !dbg !40
  %191 = icmp eq i64 %189, 1, !dbg !40
  %.pr222 = load i64, ptr %188, align 8, !dbg !40
  br i1 %191, label %194, label %.thread223, !dbg !40

.thread223:                                       ; preds = %186
  %192 = add i64 %.pr222, 1, !dbg !40
  store i64 %192, ptr %188, align 8, !dbg !40
  %193 = icmp ne i64 %.pr222, 0, !dbg !40
  tail call void @llvm.assume(i1 %193), !dbg !40
  br label %196, !dbg !40

194:                                              ; preds = %186
  %195 = icmp eq i64 %.pr222, 1, !dbg !40
  br i1 %195, label %204, label %196, !dbg !40

196:                                              ; preds = %.thread223, %194
  %197 = phi ptr [ null, %.thread223 ], [ %177, %194 ]
  %198 = getelementptr i8, ptr %188, i64 8, !dbg !40
  %199 = load ptr, ptr %198, align 8, !dbg !40, !invariant.group !3
  %200 = getelementptr i8, ptr %199, i64 8, !dbg !40
  %201 = load ptr, ptr %200, align 8, !dbg !40, !invariant.group !3
  %202 = tail call ptr %201(ptr nonnull %188), !dbg !40
  %203 = load ptr, ptr %199, align 8, !dbg !40, !invariant.group !3
  tail call void %203(ptr nonnull %188), !dbg !40
  br label %204, !dbg !40

204:                                              ; preds = %196, %194
  %205 = phi ptr [ %197, %196 ], [ %177, %194 ]
  %206 = phi ptr [ %202, %196 ], [ %188, %194 ], !dbg !40
  %207 = getelementptr i8, ptr %206, i64 16, !dbg !40
  %208 = load ptr, ptr %207, align 8, !dbg !40
  %209 = ptrtoint ptr %208 to i64, !dbg !40
  %210 = sub i64 0, %209, !dbg !40
  %211 = and i64 %210, 7, !dbg !40
  %212 = add nuw i64 %211, %209, !dbg !40
  %213 = inttoptr i64 %212 to ptr, !dbg !40
  store ptr %114, ptr %213, align 8, !dbg !40, !invariant.group !3
  %214 = add nuw i64 %212, 8, !dbg !40
  %215 = inttoptr i64 %214 to ptr, !dbg !40
  store ptr %215, ptr %207, align 8, !dbg !40
  %216 = getelementptr i8, ptr %206, i64 8, !dbg !40
  %217 = load ptr, ptr %216, align 8, !dbg !40, !invariant.group !3
  %218 = getelementptr i8, ptr %217, i64 16, !dbg !40
  %219 = load ptr, ptr %218, align 8, !dbg !40, !invariant.group !3
  %220 = tail call ptr %219(ptr %206), !dbg !40
  tail call void @__reussir_deallocate(ptr %205, i64 8, i64 32), !dbg !40
  br label %221, !dbg !40

221:                                              ; preds = %204, %183, %180
  %222 = phi ptr [ %220, %204 ], [ %184, %183 ], [ %181, %180 ], !dbg !40
  %223 = tail call align 8 dereferenceable_or_null(40) ptr @__reussir_allocate(i64 8, i64 40), !dbg !41
  store i64 1, ptr %223, align 8, !dbg !41
  %224 = getelementptr i8, ptr %223, i64 8, !dbg !41
  store ptr @"_RNvNvC12hoascbv_testsF_8$closure6vtable", ptr %224, align 8, !dbg !41, !invariant.group !3
  %225 = getelementptr i8, ptr %223, i64 16, !dbg !41
  %226 = getelementptr i8, ptr %223, i64 24, !dbg !41
  %227 = ptrtoint ptr %226 to i64, !dbg !41
  store ptr %222, ptr %226, align 8, !dbg !41, !invariant.group !3
  %228 = add nuw i64 %227, 8, !dbg !41
  %229 = inttoptr i64 %228 to ptr, !dbg !41
  store ptr %229, ptr %225, align 8, !dbg !41
  %230 = tail call align 8 dereferenceable_or_null(32) ptr @__reussir_allocate(i64 8, i64 32), !dbg !41
  store i64 1, ptr %230, align 8, !dbg !41
  %231 = getelementptr i8, ptr %230, i64 8, !dbg !41
  store i64 2, ptr %231, align 8, !dbg !41
  %.repack185 = getelementptr i8, ptr %230, i64 16, !dbg !41
  store i64 0, ptr %.repack185, align 8, !dbg !41
  %.repack185.repack187 = getelementptr i8, ptr %230, i64 24, !dbg !41
  store ptr %223, ptr %.repack185.repack187, align 8, !dbg !41
  %232 = tail call align 8 dereferenceable_or_null(40) ptr @__reussir_allocate(i64 8, i64 40), !dbg !42
  store i64 1, ptr %232, align 8, !dbg !42
  %233 = getelementptr i8, ptr %232, i64 8, !dbg !42
  store ptr @"_RNvNvC12hoascbv_testsH_8$closure6vtable", ptr %233, align 8, !dbg !42, !invariant.group !3
  %234 = getelementptr i8, ptr %232, i64 16, !dbg !42
  %235 = getelementptr i8, ptr %232, i64 24, !dbg !42
  %236 = ptrtoint ptr %235 to i64, !dbg !42
  store ptr %230, ptr %235, align 8, !dbg !42, !invariant.group !3
  %237 = add nuw i64 %236, 8, !dbg !42
  %238 = inttoptr i64 %237 to ptr, !dbg !42
  store ptr %238, ptr %234, align 8, !dbg !42
  %239 = tail call align 8 dereferenceable_or_null(32) ptr @__reussir_allocate(i64 8, i64 32), !dbg !42
  store i64 1, ptr %239, align 8, !dbg !42
  %240 = getelementptr i8, ptr %239, i64 8, !dbg !42
  store i64 2, ptr %240, align 8, !dbg !42
  %.repack198 = getelementptr i8, ptr %239, i64 16, !dbg !42
  store i64 0, ptr %.repack198, align 8, !dbg !42
  %.repack198.repack200 = getelementptr i8, ptr %239, i64 24, !dbg !42
  store ptr %232, ptr %.repack198.repack200, align 8, !dbg !42
  %241 = tail call align 8 dereferenceable_or_null(32) ptr @__reussir_allocate(i64 8, i64 32), !dbg !43
  store i64 1, ptr %241, align 8, !dbg !43
  %242 = getelementptr i8, ptr %241, i64 8, !dbg !43
  store ptr @"_RNvNvC12hoascbv_testsJ_8$closure6vtable", ptr %242, align 8, !dbg !43, !invariant.group !3
  %243 = getelementptr i8, ptr %241, i64 16, !dbg !43
  %244 = getelementptr i8, ptr %241, i64 24, !dbg !43
  %245 = ptrtoint ptr %244 to i64, !dbg !44
  store ptr %239, ptr %244, align 8, !dbg !44, !invariant.group !3
  %246 = add nuw i64 %245, 8, !dbg !44
  %247 = inttoptr i64 %246 to ptr, !dbg !44
  store ptr %247, ptr %243, align 8, !dbg !44
  %248 = tail call ptr @"_RNvNvC12hoascbv_testsJ_8$closure8evaluate"(ptr nonnull %241), !dbg !44
  %249 = tail call ptr @_RC5quote(i64 0, ptr %248), !dbg !45
  %250 = tail call i64 @_RC5force(ptr %249), !dbg !46
  ret i64 %250, !dbg !46
}

define weak_odr ptr @_RC5quote(i64 %0, ptr %1) local_unnamed_addr !dbg !47 {
    #dbg_value(i64 %0, !48, !DIExpression(), !50)
  %3 = getelementptr i8, ptr %1, i64 8, !dbg !51
  %4 = load i64, ptr %3, align 8, !dbg !51
  %5 = icmp ult i64 %4, 3, !dbg !51
  tail call void @llvm.assume(i1 %5), !dbg !51
  %6 = trunc nuw nsw i64 %4 to i32, !dbg !51
  switch i32 %6, label %default.unreachable [
    i32 0, label %7
    i32 1, label %23
    i32 2, label %66
  ], !dbg !51

7:                                                ; preds = %2
  %8 = getelementptr i8, ptr %1, i64 16, !dbg !51
  %9 = load i64, ptr %8, align 8, !dbg !51
  %10 = load i64, ptr %1, align 8, !dbg !51
  %11 = add i64 %10, -1, !dbg !51
  store i64 %11, ptr %1, align 8, !dbg !51
  %12 = icmp eq i64 %10, 1, !dbg !51
  %13 = xor i64 %9, -1, !dbg !52
  %14 = add i64 %0, %13, !dbg !52
  %.unpack93.unpack.cast = inttoptr i64 %14 to ptr, !dbg !52
  br i1 %12, label %15, label %18, !dbg !52

15:                                               ; preds = %7
  %16 = tail call ptr @llvm.launder.invariant.group.p0(ptr nonnull %1), !dbg !52
  %17 = icmp eq ptr %16, %1, !dbg !52
  tail call void @llvm.assume(i1 %17), !dbg !52
  br label %20, !dbg !52

18:                                               ; preds = %7
  %19 = tail call align 8 dereferenceable_or_null(32) ptr @__reussir_allocate(i64 8, i64 32), !dbg !52
  br label %20, !dbg !52

20:                                               ; preds = %18, %15
  %21 = phi ptr [ %19, %18 ], [ %1, %15 ], !dbg !52
  store i64 1, ptr %21, align 8, !dbg !52
  %22 = getelementptr i8, ptr %21, i64 8, !dbg !52
  store i64 0, ptr %22, align 8, !dbg !52
  %.repack112 = getelementptr i8, ptr %21, i64 16, !dbg !52
  store ptr %.unpack93.unpack.cast, ptr %.repack112, align 8, !dbg !52
  br label %common.ret, !dbg !51

23:                                               ; preds = %2
  %24 = getelementptr i8, ptr %1, i64 16, !dbg !51
  %25 = load ptr, ptr %24, align 8, !dbg !51
  %26 = getelementptr i8, ptr %1, i64 24, !dbg !51
  %27 = load ptr, ptr %26, align 8, !dbg !51
  %28 = load i64, ptr %1, align 8, !dbg !51
  %29 = add i64 %28, -1, !dbg !51
  store i64 %29, ptr %1, align 8, !dbg !51
  %30 = icmp eq i64 %28, 1, !dbg !51
  br i1 %30, label %38, label %31, !dbg !51

31:                                               ; preds = %23
  %32 = load i64, ptr %25, align 8, !dbg !51
  %33 = add i64 %32, 1, !dbg !51
  store i64 %33, ptr %25, align 8, !dbg !51
  %34 = icmp ne i64 %32, 0, !dbg !51
  tail call void @llvm.assume(i1 %34), !dbg !51
  %35 = load i64, ptr %27, align 8, !dbg !51
  %36 = add i64 %35, 1, !dbg !51
  store i64 %36, ptr %27, align 8, !dbg !51
  %37 = icmp ne i64 %35, 0, !dbg !51
  tail call void @llvm.assume(i1 %37), !dbg !51
  br label %38, !dbg !51

38:                                               ; preds = %31, %23
  %39 = phi ptr [ null, %31 ], [ %1, %23 ], !dbg !51
  %40 = tail call ptr @_RC5quote(i64 %0, ptr %25), !dbg !53
  %41 = tail call ptr @_RC5quote(i64 %0, ptr %27), !dbg !54
  %42 = ptrtoint ptr %41 to i64, !dbg !55
  %43 = trunc i64 %42 to i8, !dbg !55
  %44 = lshr i64 %42, 8, !dbg !55
  %45 = trunc i64 %44 to i8, !dbg !55
  %46 = lshr i64 %42, 16, !dbg !55
  %47 = trunc i64 %46 to i8, !dbg !55
  %48 = lshr i64 %42, 24, !dbg !55
  %49 = trunc i64 %48 to i8, !dbg !55
  %50 = lshr i64 %42, 32, !dbg !55
  %51 = trunc i64 %50 to i8, !dbg !55
  %52 = lshr i64 %42, 40, !dbg !55
  %53 = trunc i64 %52 to i8, !dbg !55
  %54 = lshr i64 %42, 48, !dbg !55
  %55 = trunc i64 %54 to i8, !dbg !55
  %56 = lshr i64 %42, 56, !dbg !55
  %57 = trunc nuw i64 %56 to i8, !dbg !55
  %.not73 = icmp eq ptr %39, null, !dbg !55
  br i1 %.not73, label %61, label %58, !dbg !55

58:                                               ; preds = %38
  %59 = tail call ptr @llvm.launder.invariant.group.p0(ptr nonnull %39), !dbg !55
  %60 = icmp eq ptr %59, %39, !dbg !55
  tail call void @llvm.assume(i1 %60), !dbg !55
  br label %63, !dbg !55

61:                                               ; preds = %38
  %62 = tail call align 8 dereferenceable_or_null(32) ptr @__reussir_allocate(i64 8, i64 32), !dbg !55
  br label %63, !dbg !55

63:                                               ; preds = %61, %58
  %64 = phi ptr [ %62, %61 ], [ %39, %58 ], !dbg !55
  store i64 1, ptr %64, align 8, !dbg !55
  %65 = getelementptr i8, ptr %64, i64 8, !dbg !55
  store i64 1, ptr %65, align 8, !dbg !55
  %.repack74 = getelementptr i8, ptr %64, i64 16, !dbg !55
  store ptr %40, ptr %.repack74, align 8, !dbg !55
  %.repack76 = getelementptr i8, ptr %64, i64 24, !dbg !55
  store i8 %43, ptr %.repack76, align 8, !dbg !55
  %.repack76.repack78 = getelementptr i8, ptr %64, i64 25, !dbg !55
  store i8 %45, ptr %.repack76.repack78, align 1, !dbg !55
  %.repack76.repack80 = getelementptr i8, ptr %64, i64 26, !dbg !55
  store i8 %47, ptr %.repack76.repack80, align 2, !dbg !55
  %.repack76.repack82 = getelementptr i8, ptr %64, i64 27, !dbg !55
  store i8 %49, ptr %.repack76.repack82, align 1, !dbg !55
  %.repack76.repack84 = getelementptr i8, ptr %64, i64 28, !dbg !55
  store i8 %51, ptr %.repack76.repack84, align 4, !dbg !55
  %.repack76.repack86 = getelementptr i8, ptr %64, i64 29, !dbg !55
  store i8 %53, ptr %.repack76.repack86, align 1, !dbg !55
  %.repack76.repack88 = getelementptr i8, ptr %64, i64 30, !dbg !55
  store i8 %55, ptr %.repack76.repack88, align 2, !dbg !55
  %.repack76.repack90 = getelementptr i8, ptr %64, i64 31, !dbg !55
  store i8 %57, ptr %.repack76.repack90, align 1, !dbg !55
  br label %common.ret, !dbg !51

66:                                               ; preds = %2
  %67 = getelementptr i8, ptr %1, i64 24, !dbg !51
  %68 = load ptr, ptr %67, align 8, !dbg !51
  %69 = load i64, ptr %1, align 8, !dbg !51
  %70 = add i64 %69, -1, !dbg !51
  store i64 %70, ptr %1, align 8, !dbg !51
  %71 = icmp eq i64 %69, 1, !dbg !51
  br i1 %71, label %72, label %75, !dbg !51

72:                                               ; preds = %66
  %73 = tail call ptr @llvm.launder.invariant.group.p0(ptr nonnull %1), !dbg !56
  %74 = icmp eq ptr %73, %1, !dbg !56
  tail call void @llvm.assume(i1 %74), !dbg !56
  br label %80, !dbg !56

75:                                               ; preds = %66
  %76 = load i64, ptr %68, align 8, !dbg !51
  %77 = add i64 %76, 1, !dbg !51
  store i64 %77, ptr %68, align 8, !dbg !51
  %78 = icmp ne i64 %76, 0, !dbg !51
  tail call void @llvm.assume(i1 %78), !dbg !51
  %79 = tail call align 8 dereferenceable_or_null(32) ptr @__reussir_allocate(i64 8, i64 32), !dbg !56
  br label %80, !dbg !56

80:                                               ; preds = %75, %72
  %81 = phi ptr [ %79, %75 ], [ %1, %72 ], !dbg !56
  %82 = add i64 %0, 1, !dbg !57
  store i64 1, ptr %81, align 8, !dbg !56
  %83 = getelementptr i8, ptr %81, i64 8, !dbg !56
  store i64 0, ptr %83, align 8, !dbg !56
  %.repack7 = getelementptr i8, ptr %81, i64 16, !dbg !56
  store i64 %0, ptr %.repack7, align 8, !dbg !56
  %84 = load i64, ptr %68, align 8, !dbg !58
  %85 = icmp eq i64 %84, 1, !dbg !58
  br i1 %85, label %93, label %86, !dbg !58

86:                                               ; preds = %80
  %87 = getelementptr i8, ptr %68, i64 8, !dbg !58
  %88 = load ptr, ptr %87, align 8, !dbg !58, !invariant.group !3
  %89 = getelementptr i8, ptr %88, i64 8, !dbg !58
  %90 = load ptr, ptr %89, align 8, !dbg !58, !invariant.group !3
  %91 = tail call ptr %90(ptr nonnull %68), !dbg !58
  %92 = load ptr, ptr %88, align 8, !dbg !58, !invariant.group !3
  tail call void %92(ptr nonnull %68), !dbg !58
  br label %93, !dbg !58

common.ret:                                       ; preds = %63, %20, %93
  %common.ret.op = phi ptr [ %110, %93 ], [ %64, %63 ], [ %21, %20 ]
  ret ptr %common.ret.op, !dbg !51

93:                                               ; preds = %86, %80
  %94 = phi ptr [ %91, %86 ], [ %68, %80 ], !dbg !58
  %95 = getelementptr i8, ptr %94, i64 16, !dbg !58
  %96 = load ptr, ptr %95, align 8, !dbg !58
  %97 = ptrtoint ptr %96 to i64, !dbg !58
  %98 = sub i64 0, %97, !dbg !58
  %99 = and i64 %98, 7, !dbg !58
  %100 = add nuw i64 %99, %97, !dbg !58
  %101 = inttoptr i64 %100 to ptr, !dbg !58
  store ptr %81, ptr %101, align 8, !dbg !58, !invariant.group !3
  %102 = add nuw i64 %100, 8, !dbg !58
  %103 = inttoptr i64 %102 to ptr, !dbg !58
  store ptr %103, ptr %95, align 8, !dbg !58
  %104 = getelementptr i8, ptr %94, i64 8, !dbg !58
  %105 = load ptr, ptr %104, align 8, !dbg !58, !invariant.group !3
  %106 = getelementptr i8, ptr %105, i64 16, !dbg !58
  %107 = load ptr, ptr %106, align 8, !dbg !58, !invariant.group !3
  %108 = tail call ptr %107(ptr %94), !dbg !58
  %109 = tail call ptr @_RC5quote(i64 %82, ptr %108), !dbg !57
  %110 = tail call align 8 dereferenceable_or_null(32) ptr @__reussir_allocate(i64 8, i64 32), !dbg !59
  store i64 1, ptr %110, align 8, !dbg !59
  %111 = getelementptr i8, ptr %110, i64 8, !dbg !59
  store i64 2, ptr %111, align 8, !dbg !59
  %.repack31 = getelementptr i8, ptr %110, i64 16, !dbg !59
  store ptr %109, ptr %.repack31, align 8, !dbg !59
  br label %common.ret, !dbg !51

default.unreachable:                              ; preds = %2
  unreachable
}

define weak_odr ptr @_RC6quote0(ptr %0) local_unnamed_addr !dbg !60 {
  %2 = tail call ptr @_RC5quote(i64 0, ptr %0), !dbg !61
  ret ptr %2, !dbg !61
}

define weak_odr ptr @_RC4node() local_unnamed_addr !dbg !62 {
  %1 = tail call align 8 dereferenceable_or_null(32) ptr @__reussir_allocate(i64 8, i64 32), !dbg !63
  store i64 1, ptr %1, align 8, !dbg !63
  %2 = getelementptr i8, ptr %1, i64 8, !dbg !63
  store ptr @"_RNvNvC4nodes3_8$closure6vtable", ptr %2, align 8, !dbg !63, !invariant.group !3
  %3 = getelementptr i8, ptr %1, i64 16, !dbg !63
  %4 = getelementptr i8, ptr %1, i64 24, !dbg !63
  store ptr %4, ptr %3, align 8, !dbg !63
  %5 = tail call align 8 dereferenceable_or_null(32) ptr @__reussir_allocate(i64 8, i64 32), !dbg !64
  store i64 1, ptr %5, align 8, !dbg !64
  %6 = getelementptr i8, ptr %5, i64 8, !dbg !64
  store i64 2, ptr %6, align 8, !dbg !64
  %.repack4 = getelementptr i8, ptr %5, i64 16, !dbg !64
  store i64 0, ptr %.repack4, align 8, !dbg !64
  %.repack4.repack6 = getelementptr i8, ptr %5, i64 24, !dbg !64
  store ptr %1, ptr %.repack4.repack6, align 8, !dbg !64
  ret ptr %5, !dbg !64
}

define weak_odr ptr @_RC4leaf() local_unnamed_addr !dbg !65 {
  %1 = tail call align 8 dereferenceable_or_null(32) ptr @__reussir_allocate(i64 8, i64 32), !dbg !66
  store i64 1, ptr %1, align 8, !dbg !66
  %2 = getelementptr i8, ptr %1, i64 8, !dbg !66
  store ptr @"_RNvNvC4leafs1_8$closure6vtable", ptr %2, align 8, !dbg !66, !invariant.group !3
  %3 = getelementptr i8, ptr %1, i64 16, !dbg !66
  %4 = getelementptr i8, ptr %1, i64 24, !dbg !66
  store ptr %4, ptr %3, align 8, !dbg !66
  %5 = tail call align 8 dereferenceable_or_null(32) ptr @__reussir_allocate(i64 8, i64 32), !dbg !67
  store i64 1, ptr %5, align 8, !dbg !67
  %6 = getelementptr i8, ptr %5, i64 8, !dbg !67
  store i64 2, ptr %6, align 8, !dbg !67
  %.repack4 = getelementptr i8, ptr %5, i64 16, !dbg !67
  store i64 0, ptr %.repack4, align 8, !dbg !67
  %.repack4.repack6 = getelementptr i8, ptr %5, i64 24, !dbg !67
  store ptr %1, ptr %.repack4.repack6, align 8, !dbg !67
  ret ptr %5, !dbg !67
}

define i64 @hoascbv_test_ffi() local_unnamed_addr {
  %1 = tail call i64 @_RC12hoascbv_test()
  ret i64 %1
}

define internal ptr @"_RNvNvC9full_trees0_8$closure8evaluate"(ptr captures(none) %0) {
  %2 = getelementptr i8, ptr %0, i64 24
  %3 = load ptr, ptr %2, align 8, !invariant.group !3
  %4 = tail call align 8 dereferenceable_or_null(32) ptr @__reussir_allocate(i64 8, i64 32), !dbg !63
  store i64 1, ptr %4, align 8, !dbg !63
  %5 = getelementptr i8, ptr %4, i64 8, !dbg !63
  store ptr @"_RNvNvC4nodes3_8$closure6vtable", ptr %5, align 8, !dbg !63, !invariant.group !3
  %6 = getelementptr i8, ptr %4, i64 16, !dbg !63
  %7 = getelementptr i8, ptr %4, i64 24, !dbg !63
  store ptr %7, ptr %6, align 8, !dbg !63
  %8 = tail call align 8 dereferenceable_or_null(32) ptr @__reussir_allocate(i64 8, i64 32), !dbg !64
  store i64 1, ptr %8, align 8, !dbg !64
  %9 = getelementptr i8, ptr %8, i64 8, !dbg !64
  store i64 2, ptr %9, align 8, !dbg !64
  %.repack4.i = getelementptr i8, ptr %8, i64 16, !dbg !64
  store i64 0, ptr %.repack4.i, align 8, !dbg !64
  %.repack4.repack6.i = getelementptr i8, ptr %8, i64 24, !dbg !64
  store ptr %4, ptr %.repack4.repack6.i, align 8, !dbg !64
  %10 = load i64, ptr %3, align 8
  %11 = add i64 %10, 1
  store i64 %11, ptr %3, align 8
  %12 = icmp ne i64 %10, 0
  tail call void @llvm.assume(i1 %12)
  %13 = tail call ptr @_RC3ap2(ptr nonnull %8, ptr nonnull %3, ptr nonnull %3)
  %14 = load i64, ptr %0, align 8
  %15 = add i64 %14, -1
  store i64 %15, ptr %0, align 8
  %16 = icmp eq i64 %14, 1
  br i1 %16, label %17, label %18

17:                                               ; preds = %1
  tail call void @__reussir_deallocate(ptr nonnull %0, i64 8, i64 32)
  br label %18

18:                                               ; preds = %17, %1
  ret ptr %13
}

; Function Attrs: mustprogress norecurse nounwind willreturn
define internal noundef ptr @"_RNvNvC9full_trees0_8$closure5clone"(ptr %0) #2 {
  %2 = tail call align 8 dereferenceable_or_null(32) ptr @__reussir_allocate(i64 8, i64 32)
  store i64 1, ptr %2, align 8
  %3 = getelementptr i8, ptr %2, i64 8
  %4 = getelementptr i8, ptr %0, i64 8
  %5 = getelementptr i8, ptr %0, i64 16
  %6 = load ptr, ptr %5, align 8
  %7 = ptrtoint ptr %4 to i64
  %8 = ptrtoint ptr %3 to i64
  %9 = ptrtoint ptr %6 to i64
  %10 = sub nuw nsw i64 %9, %7
  %11 = add nuw nsw i64 %7, 8
  %12 = inttoptr i64 %11 to ptr
  %13 = add nuw nsw i64 %8, 8
  %14 = inttoptr i64 %13 to ptr
  tail call void @llvm.memcpy.inline.p0.p0.i64(ptr nonnull align 8 %14, ptr nonnull align 1 %12, i64 16, i1 false)
  %15 = load ptr, ptr %4, align 8, !invariant.group !3
  store ptr %15, ptr %3, align 8, !invariant.group !3
  %16 = getelementptr inbounds i8, ptr %3, i64 %10
  %17 = getelementptr i8, ptr %2, i64 16
  store ptr %16, ptr %17, align 8
  %18 = getelementptr i8, ptr %0, i64 24
  %19 = icmp ugt ptr %6, %18
  br i1 %19, label %20, label %26

20:                                               ; preds = %1
  %21 = getelementptr i8, ptr %2, i64 24
  %22 = load ptr, ptr %21, align 8, !invariant.group !3
  %23 = load i64, ptr %22, align 8
  %24 = add i64 %23, 1
  store i64 %24, ptr %22, align 8
  %25 = icmp ne i64 %23, 0
  tail call void @llvm.assume(i1 %25)
  br label %26

26:                                               ; preds = %20, %1
  ret ptr %2
}

define internal void @"_RNvNvC9full_trees0_8$closure4drop"(ptr captures(address) %0) {
  %2 = load i64, ptr %0, align 8
  %3 = add i64 %2, -1
  store i64 %3, ptr %0, align 8
  %4 = icmp eq i64 %2, 1
  br i1 %4, label %5, label %20

5:                                                ; preds = %1
  %6 = getelementptr i8, ptr %0, i64 16
  %7 = load ptr, ptr %6, align 8
  %8 = getelementptr i8, ptr %0, i64 24
  %9 = icmp ugt ptr %7, %8
  br i1 %9, label %10, label %19

10:                                               ; preds = %5
  %11 = load ptr, ptr %8, align 8
  %12 = load i64, ptr %11, align 8
  %13 = add i64 %12, -1
  store i64 %13, ptr %11, align 8
  %14 = icmp eq i64 %12, 1
  br i1 %14, label %15, label %17

15:                                               ; preds = %10
  %16 = getelementptr i8, ptr %11, i64 8
  tail call void @_RINvNvC4core9intrinsic13drop_in_placeC5ValueE(ptr %16)
  br label %17

17:                                               ; preds = %15, %10
  %18 = phi ptr [ %11, %15 ], [ null, %10 ]
  tail call void @__reussir_deallocate(ptr %18, i64 8, i64 32)
  br label %19

19:                                               ; preds = %17, %5
  tail call void @__reussir_deallocate(ptr nonnull %0, i64 8, i64 32)
  br label %20

20:                                               ; preds = %19, %1
  ret void
}

define internal ptr @"_RNvNvC9full_trees1_8$closure8evaluate"(ptr captures(none) %0) {
  %2 = getelementptr i8, ptr %0, i64 24
  %3 = load ptr, ptr %2, align 8, !invariant.group !3
  %4 = tail call align 8 dereferenceable_or_null(32) ptr @__reussir_allocate(i64 8, i64 32)
  store i64 1, ptr %4, align 8
  %5 = getelementptr i8, ptr %4, i64 8
  store ptr @"_RNvNvC9full_trees0_8$closure6vtable", ptr %5, align 8, !invariant.group !3
  %6 = getelementptr i8, ptr %4, i64 16
  %7 = getelementptr i8, ptr %4, i64 24
  store ptr %7, ptr %6, align 8
  %8 = tail call align 8 dereferenceable_or_null(32) ptr @__reussir_allocate(i64 8, i64 32)
  store i64 1, ptr %8, align 8
  %9 = getelementptr i8, ptr %8, i64 8
  store i64 2, ptr %9, align 8
  %.repack4 = getelementptr i8, ptr %8, i64 16
  store i64 1, ptr %.repack4, align 8
  %.repack4.repack6 = getelementptr i8, ptr %8, i64 24
  store ptr %4, ptr %.repack4.repack6, align 8
  %10 = tail call align 8 dereferenceable_or_null(32) ptr @__reussir_allocate(i64 8, i64 32), !dbg !66
  store i64 1, ptr %10, align 8, !dbg !66
  %11 = getelementptr i8, ptr %10, i64 8, !dbg !66
  store ptr @"_RNvNvC4leafs1_8$closure6vtable", ptr %11, align 8, !dbg !66, !invariant.group !3
  %12 = getelementptr i8, ptr %10, i64 16, !dbg !66
  %13 = getelementptr i8, ptr %10, i64 24, !dbg !66
  store ptr %13, ptr %12, align 8, !dbg !66
  %14 = tail call align 8 dereferenceable_or_null(32) ptr @__reussir_allocate(i64 8, i64 32), !dbg !67
  store i64 1, ptr %14, align 8, !dbg !67
  %15 = getelementptr i8, ptr %14, i64 8, !dbg !67
  store i64 2, ptr %15, align 8, !dbg !67
  %.repack4.i = getelementptr i8, ptr %14, i64 16, !dbg !67
  store i64 0, ptr %.repack4.i, align 8, !dbg !67
  %.repack4.repack6.i = getelementptr i8, ptr %14, i64 24, !dbg !67
  store ptr %10, ptr %.repack4.repack6.i, align 8, !dbg !67
  %16 = tail call ptr @_RC3ap2(ptr %3, ptr nonnull %8, ptr nonnull %14)
  %17 = load i64, ptr %0, align 8
  %18 = add i64 %17, -1
  store i64 %18, ptr %0, align 8
  %19 = icmp eq i64 %17, 1
  br i1 %19, label %20, label %21

20:                                               ; preds = %1
  tail call void @__reussir_deallocate(ptr nonnull %0, i64 8, i64 32)
  br label %21

21:                                               ; preds = %20, %1
  ret ptr %16
}

; Function Attrs: mustprogress norecurse nounwind willreturn
define internal noundef ptr @"_RNvNvC9full_trees1_8$closure5clone"(ptr %0) #2 {
  %2 = tail call align 8 dereferenceable_or_null(32) ptr @__reussir_allocate(i64 8, i64 32)
  store i64 1, ptr %2, align 8
  %3 = getelementptr i8, ptr %2, i64 8
  %4 = getelementptr i8, ptr %0, i64 8
  %5 = getelementptr i8, ptr %0, i64 16
  %6 = load ptr, ptr %5, align 8
  %7 = ptrtoint ptr %4 to i64
  %8 = ptrtoint ptr %3 to i64
  %9 = ptrtoint ptr %6 to i64
  %10 = sub nuw nsw i64 %9, %7
  %11 = add nuw nsw i64 %7, 8
  %12 = inttoptr i64 %11 to ptr
  %13 = add nuw nsw i64 %8, 8
  %14 = inttoptr i64 %13 to ptr
  tail call void @llvm.memcpy.inline.p0.p0.i64(ptr nonnull align 8 %14, ptr nonnull align 1 %12, i64 16, i1 false)
  %15 = load ptr, ptr %4, align 8, !invariant.group !3
  store ptr %15, ptr %3, align 8, !invariant.group !3
  %16 = getelementptr inbounds i8, ptr %3, i64 %10
  %17 = getelementptr i8, ptr %2, i64 16
  store ptr %16, ptr %17, align 8
  %18 = getelementptr i8, ptr %0, i64 24
  %19 = icmp ugt ptr %6, %18
  br i1 %19, label %20, label %26

20:                                               ; preds = %1
  %21 = getelementptr i8, ptr %2, i64 24
  %22 = load ptr, ptr %21, align 8, !invariant.group !3
  %23 = load i64, ptr %22, align 8
  %24 = add i64 %23, 1
  store i64 %24, ptr %22, align 8
  %25 = icmp ne i64 %23, 0
  tail call void @llvm.assume(i1 %25)
  br label %26

26:                                               ; preds = %20, %1
  ret ptr %2
}

define internal void @"_RNvNvC9full_trees1_8$closure4drop"(ptr captures(address) %0) {
  %2 = load i64, ptr %0, align 8
  %3 = add i64 %2, -1
  store i64 %3, ptr %0, align 8
  %4 = icmp eq i64 %2, 1
  br i1 %4, label %5, label %20

5:                                                ; preds = %1
  %6 = getelementptr i8, ptr %0, i64 16
  %7 = load ptr, ptr %6, align 8
  %8 = getelementptr i8, ptr %0, i64 24
  %9 = icmp ugt ptr %7, %8
  br i1 %9, label %10, label %19

10:                                               ; preds = %5
  %11 = load ptr, ptr %8, align 8
  %12 = load i64, ptr %11, align 8
  %13 = add i64 %12, -1
  store i64 %13, ptr %11, align 8
  %14 = icmp eq i64 %12, 1
  br i1 %14, label %15, label %17

15:                                               ; preds = %10
  %16 = getelementptr i8, ptr %11, i64 8
  tail call void @_RINvNvC4core9intrinsic13drop_in_placeC5ValueE(ptr %16)
  br label %17

17:                                               ; preds = %15, %10
  %18 = phi ptr [ %11, %15 ], [ null, %10 ]
  tail call void @__reussir_deallocate(ptr %18, i64 8, i64 32)
  br label %19

19:                                               ; preds = %17, %5
  tail call void @__reussir_deallocate(ptr nonnull %0, i64 8, i64 32)
  br label %20

20:                                               ; preds = %19, %1
  ret void
}

define internal ptr @"_RNvNvC3muls0_8$closure8evaluate"(ptr captures(none) %0) {
  %2 = getelementptr i8, ptr %0, i64 24
  %3 = load ptr, ptr %2, align 8, !invariant.group !3
  %4 = getelementptr i8, ptr %0, i64 32
  %5 = load ptr, ptr %4, align 8, !invariant.group !3
  %6 = getelementptr i8, ptr %0, i64 40
  %7 = load ptr, ptr %6, align 8, !invariant.group !3
  %8 = getelementptr i8, ptr %0, i64 48
  %9 = load ptr, ptr %8, align 8, !invariant.group !3
  %10 = tail call ptr @_RC2ap(ptr %5, ptr %7)
  %11 = tail call ptr @_RC2ap(ptr %3, ptr %10)
  %12 = tail call ptr @_RC2ap(ptr %11, ptr %9)
  %13 = load i64, ptr %0, align 8
  %14 = add i64 %13, -1
  store i64 %14, ptr %0, align 8
  %15 = icmp eq i64 %13, 1
  br i1 %15, label %16, label %17

16:                                               ; preds = %1
  tail call void @__reussir_deallocate(ptr nonnull %0, i64 8, i64 56)
  br label %17

17:                                               ; preds = %16, %1
  ret ptr %12
}

; Function Attrs: mustprogress norecurse nounwind willreturn
define internal noundef ptr @"_RNvNvC3muls0_8$closure5clone"(ptr %0) #2 {
  %2 = tail call align 8 dereferenceable_or_null(56) ptr @__reussir_allocate(i64 8, i64 56)
  store i64 1, ptr %2, align 8
  %3 = getelementptr i8, ptr %2, i64 8
  %4 = getelementptr i8, ptr %0, i64 8
  %5 = getelementptr i8, ptr %0, i64 16
  %6 = load ptr, ptr %5, align 8
  %7 = ptrtoint ptr %4 to i64
  %8 = ptrtoint ptr %3 to i64
  %9 = ptrtoint ptr %6 to i64
  %10 = sub nuw nsw i64 %9, %7
  %11 = add nsw i64 %10, -8
  %12 = add nuw nsw i64 %7, 8
  %13 = inttoptr i64 %12 to ptr
  %14 = add nuw nsw i64 %8, 8
  %15 = inttoptr i64 %14 to ptr
  tail call void @llvm.memcpy.p0.p0.i64(ptr nonnull align 8 %15, ptr nonnull align 1 %13, i64 %11, i1 false)
  %16 = load ptr, ptr %4, align 8, !invariant.group !3
  store ptr %16, ptr %3, align 8, !invariant.group !3
  %17 = getelementptr inbounds i8, ptr %3, i64 %10
  %18 = getelementptr i8, ptr %2, i64 16
  store ptr %17, ptr %18, align 8
  %19 = getelementptr i8, ptr %0, i64 24
  %20 = icmp ugt ptr %6, %19
  br i1 %20, label %21, label %27

21:                                               ; preds = %1
  %22 = getelementptr i8, ptr %2, i64 24
  %23 = load ptr, ptr %22, align 8, !invariant.group !3
  %24 = load i64, ptr %23, align 8
  %25 = add i64 %24, 1
  store i64 %25, ptr %23, align 8
  %26 = icmp ne i64 %24, 0
  tail call void @llvm.assume(i1 %26)
  br label %27

27:                                               ; preds = %21, %1
  %28 = getelementptr i8, ptr %0, i64 32
  %29 = icmp ugt ptr %6, %28
  br i1 %29, label %30, label %36

30:                                               ; preds = %27
  %31 = getelementptr i8, ptr %2, i64 32
  %32 = load ptr, ptr %31, align 8, !invariant.group !3
  %33 = load i64, ptr %32, align 8
  %34 = add i64 %33, 1
  store i64 %34, ptr %32, align 8
  %35 = icmp ne i64 %33, 0
  tail call void @llvm.assume(i1 %35)
  br label %36

36:                                               ; preds = %30, %27
  %37 = getelementptr i8, ptr %0, i64 40
  %38 = icmp ugt ptr %6, %37
  br i1 %38, label %39, label %45

39:                                               ; preds = %36
  %40 = getelementptr i8, ptr %2, i64 40
  %41 = load ptr, ptr %40, align 8, !invariant.group !3
  %42 = load i64, ptr %41, align 8
  %43 = add i64 %42, 1
  store i64 %43, ptr %41, align 8
  %44 = icmp ne i64 %42, 0
  tail call void @llvm.assume(i1 %44)
  br label %45

45:                                               ; preds = %39, %36
  %46 = getelementptr i8, ptr %0, i64 48
  %47 = icmp ugt ptr %6, %46
  br i1 %47, label %48, label %54

48:                                               ; preds = %45
  %49 = getelementptr i8, ptr %2, i64 48
  %50 = load ptr, ptr %49, align 8, !invariant.group !3
  %51 = load i64, ptr %50, align 8
  %52 = add i64 %51, 1
  store i64 %52, ptr %50, align 8
  %53 = icmp ne i64 %51, 0
  tail call void @llvm.assume(i1 %53)
  br label %54

54:                                               ; preds = %48, %45
  ret ptr %2
}

define internal void @"_RNvNvC3muls0_8$closure4drop"(ptr captures(address) %0) {
  %2 = load i64, ptr %0, align 8
  %3 = add i64 %2, -1
  store i64 %3, ptr %0, align 8
  %4 = icmp eq i64 %2, 1
  br i1 %4, label %5, label %56

5:                                                ; preds = %1
  %6 = getelementptr i8, ptr %0, i64 16
  %7 = load ptr, ptr %6, align 8
  %8 = getelementptr i8, ptr %0, i64 24
  %9 = icmp ugt ptr %7, %8
  br i1 %9, label %10, label %19

10:                                               ; preds = %5
  %11 = load ptr, ptr %8, align 8
  %12 = load i64, ptr %11, align 8
  %13 = add i64 %12, -1
  store i64 %13, ptr %11, align 8
  %14 = icmp eq i64 %12, 1
  br i1 %14, label %15, label %17

15:                                               ; preds = %10
  %16 = getelementptr i8, ptr %11, i64 8
  tail call void @_RINvNvC4core9intrinsic13drop_in_placeC5ValueE(ptr %16)
  br label %17

17:                                               ; preds = %15, %10
  %18 = phi ptr [ %11, %15 ], [ null, %10 ]
  tail call void @__reussir_deallocate(ptr %18, i64 8, i64 32)
  br label %19

19:                                               ; preds = %17, %5
  %20 = getelementptr i8, ptr %0, i64 32
  %21 = icmp ugt ptr %7, %20
  br i1 %21, label %22, label %31

22:                                               ; preds = %19
  %23 = load ptr, ptr %20, align 8
  %24 = load i64, ptr %23, align 8
  %25 = add i64 %24, -1
  store i64 %25, ptr %23, align 8
  %26 = icmp eq i64 %24, 1
  br i1 %26, label %27, label %29

27:                                               ; preds = %22
  %28 = getelementptr i8, ptr %23, i64 8
  tail call void @_RINvNvC4core9intrinsic13drop_in_placeC5ValueE(ptr %28)
  br label %29

29:                                               ; preds = %27, %22
  %30 = phi ptr [ %23, %27 ], [ null, %22 ]
  tail call void @__reussir_deallocate(ptr %30, i64 8, i64 32)
  br label %31

31:                                               ; preds = %29, %19
  %32 = getelementptr i8, ptr %0, i64 40
  %33 = icmp ugt ptr %7, %32
  br i1 %33, label %34, label %43

34:                                               ; preds = %31
  %35 = load ptr, ptr %32, align 8
  %36 = load i64, ptr %35, align 8
  %37 = add i64 %36, -1
  store i64 %37, ptr %35, align 8
  %38 = icmp eq i64 %36, 1
  br i1 %38, label %39, label %41

39:                                               ; preds = %34
  %40 = getelementptr i8, ptr %35, i64 8
  tail call void @_RINvNvC4core9intrinsic13drop_in_placeC5ValueE(ptr %40)
  br label %41

41:                                               ; preds = %39, %34
  %42 = phi ptr [ %35, %39 ], [ null, %34 ]
  tail call void @__reussir_deallocate(ptr %42, i64 8, i64 32)
  br label %43

43:                                               ; preds = %41, %31
  %44 = getelementptr i8, ptr %0, i64 48
  %45 = icmp ugt ptr %7, %44
  br i1 %45, label %46, label %55

46:                                               ; preds = %43
  %47 = load ptr, ptr %44, align 8
  %48 = load i64, ptr %47, align 8
  %49 = add i64 %48, -1
  store i64 %49, ptr %47, align 8
  %50 = icmp eq i64 %48, 1
  br i1 %50, label %51, label %53

51:                                               ; preds = %46
  %52 = getelementptr i8, ptr %47, i64 8
  tail call void @_RINvNvC4core9intrinsic13drop_in_placeC5ValueE(ptr %52)
  br label %53

53:                                               ; preds = %51, %46
  %54 = phi ptr [ %47, %51 ], [ null, %46 ]
  tail call void @__reussir_deallocate(ptr %54, i64 8, i64 32)
  br label %55

55:                                               ; preds = %53, %43
  tail call void @__reussir_deallocate(ptr nonnull %0, i64 8, i64 56)
  br label %56

56:                                               ; preds = %55, %1
  ret void
}

; Function Attrs: mustprogress norecurse nounwind willreturn
define internal noalias noundef ptr @"_RNvNvC3muls1_8$closure8evaluate"(ptr captures(none) %0) #2 {
  %2 = getelementptr i8, ptr %0, i64 24
  %3 = load ptr, ptr %2, align 8, !invariant.group !3
  %4 = getelementptr i8, ptr %0, i64 32
  %5 = load ptr, ptr %4, align 8, !invariant.group !3
  %6 = getelementptr i8, ptr %0, i64 40
  %7 = load ptr, ptr %6, align 8, !invariant.group !3
  %8 = tail call align 8 dereferenceable_or_null(56) ptr @__reussir_allocate(i64 8, i64 56)
  store i64 1, ptr %8, align 8
  %9 = getelementptr i8, ptr %8, i64 8
  store ptr @"_RNvNvC3muls0_8$closure6vtable", ptr %9, align 8, !invariant.group !3
  %10 = getelementptr i8, ptr %8, i64 16
  %11 = getelementptr i8, ptr %8, i64 24
  %12 = ptrtoint ptr %11 to i64
  store ptr %3, ptr %11, align 8, !invariant.group !3
  %13 = add nuw i64 %12, 8
  %14 = inttoptr i64 %13 to ptr
  store ptr %5, ptr %14, align 8, !invariant.group !3
  %15 = add nuw i64 %12, 16
  %16 = inttoptr i64 %15 to ptr
  store ptr %7, ptr %16, align 8, !invariant.group !3
  %17 = add nuw i64 %12, 24
  %18 = inttoptr i64 %17 to ptr
  store ptr %18, ptr %10, align 8
  %19 = tail call align 8 dereferenceable_or_null(32) ptr @__reussir_allocate(i64 8, i64 32)
  store i64 1, ptr %19, align 8
  %20 = getelementptr i8, ptr %19, i64 8
  store i64 2, ptr %20, align 8
  %.repack4 = getelementptr i8, ptr %19, i64 16
  store i64 3, ptr %.repack4, align 8
  %.repack4.repack6 = getelementptr i8, ptr %19, i64 24
  store ptr %8, ptr %.repack4.repack6, align 8
  %21 = load i64, ptr %0, align 8
  %22 = add i64 %21, -1
  store i64 %22, ptr %0, align 8
  %23 = icmp eq i64 %21, 1
  br i1 %23, label %24, label %25

24:                                               ; preds = %1
  tail call void @__reussir_deallocate(ptr nonnull %0, i64 8, i64 48)
  br label %25

25:                                               ; preds = %24, %1
  ret ptr %19
}

; Function Attrs: mustprogress norecurse nounwind willreturn
define internal noundef ptr @"_RNvNvC3muls1_8$closure5clone"(ptr %0) #2 {
  %2 = tail call align 8 dereferenceable_or_null(48) ptr @__reussir_allocate(i64 8, i64 48)
  store i64 1, ptr %2, align 8
  %3 = getelementptr i8, ptr %2, i64 8
  %4 = getelementptr i8, ptr %0, i64 8
  %5 = getelementptr i8, ptr %0, i64 16
  %6 = load ptr, ptr %5, align 8
  %7 = ptrtoint ptr %4 to i64
  %8 = ptrtoint ptr %3 to i64
  %9 = ptrtoint ptr %6 to i64
  %10 = sub nuw nsw i64 %9, %7
  %11 = add nuw nsw i64 %7, 8
  %12 = inttoptr i64 %11 to ptr
  %13 = add nuw nsw i64 %8, 8
  %14 = inttoptr i64 %13 to ptr
  tail call void @llvm.memcpy.inline.p0.p0.i64(ptr nonnull align 8 %14, ptr nonnull align 1 %12, i64 32, i1 false)
  %15 = load ptr, ptr %4, align 8, !invariant.group !3
  store ptr %15, ptr %3, align 8, !invariant.group !3
  %16 = getelementptr inbounds i8, ptr %3, i64 %10
  %17 = getelementptr i8, ptr %2, i64 16
  store ptr %16, ptr %17, align 8
  %18 = getelementptr i8, ptr %0, i64 24
  %19 = icmp ugt ptr %6, %18
  br i1 %19, label %20, label %26

20:                                               ; preds = %1
  %21 = getelementptr i8, ptr %2, i64 24
  %22 = load ptr, ptr %21, align 8, !invariant.group !3
  %23 = load i64, ptr %22, align 8
  %24 = add i64 %23, 1
  store i64 %24, ptr %22, align 8
  %25 = icmp ne i64 %23, 0
  tail call void @llvm.assume(i1 %25)
  br label %26

26:                                               ; preds = %20, %1
  %27 = getelementptr i8, ptr %0, i64 32
  %28 = icmp ugt ptr %6, %27
  br i1 %28, label %29, label %35

29:                                               ; preds = %26
  %30 = getelementptr i8, ptr %2, i64 32
  %31 = load ptr, ptr %30, align 8, !invariant.group !3
  %32 = load i64, ptr %31, align 8
  %33 = add i64 %32, 1
  store i64 %33, ptr %31, align 8
  %34 = icmp ne i64 %32, 0
  tail call void @llvm.assume(i1 %34)
  br label %35

35:                                               ; preds = %29, %26
  %36 = getelementptr i8, ptr %0, i64 40
  %37 = icmp ugt ptr %6, %36
  br i1 %37, label %38, label %44

38:                                               ; preds = %35
  %39 = getelementptr i8, ptr %2, i64 40
  %40 = load ptr, ptr %39, align 8, !invariant.group !3
  %41 = load i64, ptr %40, align 8
  %42 = add i64 %41, 1
  store i64 %42, ptr %40, align 8
  %43 = icmp ne i64 %41, 0
  tail call void @llvm.assume(i1 %43)
  br label %44

44:                                               ; preds = %38, %35
  ret ptr %2
}

define internal void @"_RNvNvC3muls1_8$closure4drop"(ptr captures(address) %0) {
  %2 = load i64, ptr %0, align 8
  %3 = add i64 %2, -1
  store i64 %3, ptr %0, align 8
  %4 = icmp eq i64 %2, 1
  br i1 %4, label %5, label %44

5:                                                ; preds = %1
  %6 = getelementptr i8, ptr %0, i64 16
  %7 = load ptr, ptr %6, align 8
  %8 = getelementptr i8, ptr %0, i64 24
  %9 = icmp ugt ptr %7, %8
  br i1 %9, label %10, label %19

10:                                               ; preds = %5
  %11 = load ptr, ptr %8, align 8
  %12 = load i64, ptr %11, align 8
  %13 = add i64 %12, -1
  store i64 %13, ptr %11, align 8
  %14 = icmp eq i64 %12, 1
  br i1 %14, label %15, label %17

15:                                               ; preds = %10
  %16 = getelementptr i8, ptr %11, i64 8
  tail call void @_RINvNvC4core9intrinsic13drop_in_placeC5ValueE(ptr %16)
  br label %17

17:                                               ; preds = %15, %10
  %18 = phi ptr [ %11, %15 ], [ null, %10 ]
  tail call void @__reussir_deallocate(ptr %18, i64 8, i64 32)
  br label %19

19:                                               ; preds = %17, %5
  %20 = getelementptr i8, ptr %0, i64 32
  %21 = icmp ugt ptr %7, %20
  br i1 %21, label %22, label %31

22:                                               ; preds = %19
  %23 = load ptr, ptr %20, align 8
  %24 = load i64, ptr %23, align 8
  %25 = add i64 %24, -1
  store i64 %25, ptr %23, align 8
  %26 = icmp eq i64 %24, 1
  br i1 %26, label %27, label %29

27:                                               ; preds = %22
  %28 = getelementptr i8, ptr %23, i64 8
  tail call void @_RINvNvC4core9intrinsic13drop_in_placeC5ValueE(ptr %28)
  br label %29

29:                                               ; preds = %27, %22
  %30 = phi ptr [ %23, %27 ], [ null, %22 ]
  tail call void @__reussir_deallocate(ptr %30, i64 8, i64 32)
  br label %31

31:                                               ; preds = %29, %19
  %32 = getelementptr i8, ptr %0, i64 40
  %33 = icmp ugt ptr %7, %32
  br i1 %33, label %34, label %43

34:                                               ; preds = %31
  %35 = load ptr, ptr %32, align 8
  %36 = load i64, ptr %35, align 8
  %37 = add i64 %36, -1
  store i64 %37, ptr %35, align 8
  %38 = icmp eq i64 %36, 1
  br i1 %38, label %39, label %41

39:                                               ; preds = %34
  %40 = getelementptr i8, ptr %35, i64 8
  tail call void @_RINvNvC4core9intrinsic13drop_in_placeC5ValueE(ptr %40)
  br label %41

41:                                               ; preds = %39, %34
  %42 = phi ptr [ %35, %39 ], [ null, %34 ]
  tail call void @__reussir_deallocate(ptr %42, i64 8, i64 32)
  br label %43

43:                                               ; preds = %41, %31
  tail call void @__reussir_deallocate(ptr nonnull %0, i64 8, i64 48)
  br label %44

44:                                               ; preds = %43, %1
  ret void
}

; Function Attrs: mustprogress norecurse nounwind willreturn
define internal noalias noundef ptr @"_RNvNvC3muls2_8$closure8evaluate"(ptr captures(none) %0) #2 {
  %2 = getelementptr i8, ptr %0, i64 24
  %3 = load ptr, ptr %2, align 8, !invariant.group !3
  %4 = getelementptr i8, ptr %0, i64 32
  %5 = load ptr, ptr %4, align 8, !invariant.group !3
  %6 = tail call align 8 dereferenceable_or_null(48) ptr @__reussir_allocate(i64 8, i64 48)
  store i64 1, ptr %6, align 8
  %7 = getelementptr i8, ptr %6, i64 8
  store ptr @"_RNvNvC3muls1_8$closure6vtable", ptr %7, align 8, !invariant.group !3
  %8 = getelementptr i8, ptr %6, i64 16
  %9 = getelementptr i8, ptr %6, i64 24
  %10 = ptrtoint ptr %9 to i64
  store ptr %3, ptr %9, align 8, !invariant.group !3
  %11 = add nuw i64 %10, 8
  %12 = inttoptr i64 %11 to ptr
  store ptr %5, ptr %12, align 8, !invariant.group !3
  %13 = add nuw i64 %10, 16
  %14 = inttoptr i64 %13 to ptr
  store ptr %14, ptr %8, align 8
  %15 = tail call align 8 dereferenceable_or_null(32) ptr @__reussir_allocate(i64 8, i64 32)
  store i64 1, ptr %15, align 8
  %16 = getelementptr i8, ptr %15, i64 8
  store i64 2, ptr %16, align 8
  %.repack4 = getelementptr i8, ptr %15, i64 16
  store i64 2, ptr %.repack4, align 8
  %.repack4.repack6 = getelementptr i8, ptr %15, i64 24
  store ptr %6, ptr %.repack4.repack6, align 8
  %17 = load i64, ptr %0, align 8
  %18 = add i64 %17, -1
  store i64 %18, ptr %0, align 8
  %19 = icmp eq i64 %17, 1
  br i1 %19, label %20, label %21

20:                                               ; preds = %1
  tail call void @__reussir_deallocate(ptr nonnull %0, i64 8, i64 40)
  br label %21

21:                                               ; preds = %20, %1
  ret ptr %15
}

; Function Attrs: mustprogress norecurse nounwind willreturn
define internal noundef ptr @"_RNvNvC3muls2_8$closure5clone"(ptr %0) #2 {
  %2 = tail call align 8 dereferenceable_or_null(40) ptr @__reussir_allocate(i64 8, i64 40)
  store i64 1, ptr %2, align 8
  %3 = getelementptr i8, ptr %2, i64 8
  %4 = getelementptr i8, ptr %0, i64 8
  %5 = getelementptr i8, ptr %0, i64 16
  %6 = load ptr, ptr %5, align 8
  %7 = ptrtoint ptr %4 to i64
  %8 = ptrtoint ptr %3 to i64
  %9 = ptrtoint ptr %6 to i64
  %10 = sub nuw nsw i64 %9, %7
  %11 = add nuw nsw i64 %7, 8
  %12 = inttoptr i64 %11 to ptr
  %13 = add nuw nsw i64 %8, 8
  %14 = inttoptr i64 %13 to ptr
  tail call void @llvm.memcpy.inline.p0.p0.i64(ptr nonnull align 8 %14, ptr nonnull align 1 %12, i64 24, i1 false)
  %15 = load ptr, ptr %4, align 8, !invariant.group !3
  store ptr %15, ptr %3, align 8, !invariant.group !3
  %16 = getelementptr inbounds i8, ptr %3, i64 %10
  %17 = getelementptr i8, ptr %2, i64 16
  store ptr %16, ptr %17, align 8
  %18 = getelementptr i8, ptr %0, i64 24
  %19 = icmp ugt ptr %6, %18
  br i1 %19, label %20, label %26

20:                                               ; preds = %1
  %21 = getelementptr i8, ptr %2, i64 24
  %22 = load ptr, ptr %21, align 8, !invariant.group !3
  %23 = load i64, ptr %22, align 8
  %24 = add i64 %23, 1
  store i64 %24, ptr %22, align 8
  %25 = icmp ne i64 %23, 0
  tail call void @llvm.assume(i1 %25)
  br label %26

26:                                               ; preds = %20, %1
  %27 = getelementptr i8, ptr %0, i64 32
  %28 = icmp ugt ptr %6, %27
  br i1 %28, label %29, label %35

29:                                               ; preds = %26
  %30 = getelementptr i8, ptr %2, i64 32
  %31 = load ptr, ptr %30, align 8, !invariant.group !3
  %32 = load i64, ptr %31, align 8
  %33 = add i64 %32, 1
  store i64 %33, ptr %31, align 8
  %34 = icmp ne i64 %32, 0
  tail call void @llvm.assume(i1 %34)
  br label %35

35:                                               ; preds = %29, %26
  ret ptr %2
}

define internal void @"_RNvNvC3muls2_8$closure4drop"(ptr captures(address) %0) {
  %2 = load i64, ptr %0, align 8
  %3 = add i64 %2, -1
  store i64 %3, ptr %0, align 8
  %4 = icmp eq i64 %2, 1
  br i1 %4, label %5, label %32

5:                                                ; preds = %1
  %6 = getelementptr i8, ptr %0, i64 16
  %7 = load ptr, ptr %6, align 8
  %8 = getelementptr i8, ptr %0, i64 24
  %9 = icmp ugt ptr %7, %8
  br i1 %9, label %10, label %19

10:                                               ; preds = %5
  %11 = load ptr, ptr %8, align 8
  %12 = load i64, ptr %11, align 8
  %13 = add i64 %12, -1
  store i64 %13, ptr %11, align 8
  %14 = icmp eq i64 %12, 1
  br i1 %14, label %15, label %17

15:                                               ; preds = %10
  %16 = getelementptr i8, ptr %11, i64 8
  tail call void @_RINvNvC4core9intrinsic13drop_in_placeC5ValueE(ptr %16)
  br label %17

17:                                               ; preds = %15, %10
  %18 = phi ptr [ %11, %15 ], [ null, %10 ]
  tail call void @__reussir_deallocate(ptr %18, i64 8, i64 32)
  br label %19

19:                                               ; preds = %17, %5
  %20 = getelementptr i8, ptr %0, i64 32
  %21 = icmp ugt ptr %7, %20
  br i1 %21, label %22, label %31

22:                                               ; preds = %19
  %23 = load ptr, ptr %20, align 8
  %24 = load i64, ptr %23, align 8
  %25 = add i64 %24, -1
  store i64 %25, ptr %23, align 8
  %26 = icmp eq i64 %24, 1
  br i1 %26, label %27, label %29

27:                                               ; preds = %22
  %28 = getelementptr i8, ptr %23, i64 8
  tail call void @_RINvNvC4core9intrinsic13drop_in_placeC5ValueE(ptr %28)
  br label %29

29:                                               ; preds = %27, %22
  %30 = phi ptr [ %23, %27 ], [ null, %22 ]
  tail call void @__reussir_deallocate(ptr %30, i64 8, i64 32)
  br label %31

31:                                               ; preds = %29, %19
  tail call void @__reussir_deallocate(ptr nonnull %0, i64 8, i64 40)
  br label %32

32:                                               ; preds = %31, %1
  ret void
}

; Function Attrs: mustprogress norecurse nounwind willreturn
define internal noalias noundef ptr @"_RNvNvC3muls3_8$closure8evaluate"(ptr captures(none) %0) #2 {
  %2 = getelementptr i8, ptr %0, i64 24
  %3 = load ptr, ptr %2, align 8, !invariant.group !3
  %4 = tail call align 8 dereferenceable_or_null(40) ptr @__reussir_allocate(i64 8, i64 40)
  store i64 1, ptr %4, align 8
  %5 = getelementptr i8, ptr %4, i64 8
  store ptr @"_RNvNvC3muls2_8$closure6vtable", ptr %5, align 8, !invariant.group !3
  %6 = getelementptr i8, ptr %4, i64 16
  %7 = getelementptr i8, ptr %4, i64 24
  %8 = ptrtoint ptr %7 to i64
  store ptr %3, ptr %7, align 8, !invariant.group !3
  %9 = add nuw i64 %8, 8
  %10 = inttoptr i64 %9 to ptr
  store ptr %10, ptr %6, align 8
  %11 = tail call align 8 dereferenceable_or_null(32) ptr @__reussir_allocate(i64 8, i64 32)
  store i64 1, ptr %11, align 8
  %12 = getelementptr i8, ptr %11, i64 8
  store i64 2, ptr %12, align 8
  %.repack4 = getelementptr i8, ptr %11, i64 16
  store i64 1, ptr %.repack4, align 8
  %.repack4.repack6 = getelementptr i8, ptr %11, i64 24
  store ptr %4, ptr %.repack4.repack6, align 8
  %13 = load i64, ptr %0, align 8
  %14 = add i64 %13, -1
  store i64 %14, ptr %0, align 8
  %15 = icmp eq i64 %13, 1
  br i1 %15, label %16, label %17

16:                                               ; preds = %1
  tail call void @__reussir_deallocate(ptr nonnull %0, i64 8, i64 32)
  br label %17

17:                                               ; preds = %16, %1
  ret ptr %11
}

; Function Attrs: mustprogress norecurse nounwind willreturn
define internal noundef ptr @"_RNvNvC3muls3_8$closure5clone"(ptr %0) #2 {
  %2 = tail call align 8 dereferenceable_or_null(32) ptr @__reussir_allocate(i64 8, i64 32)
  store i64 1, ptr %2, align 8
  %3 = getelementptr i8, ptr %2, i64 8
  %4 = getelementptr i8, ptr %0, i64 8
  %5 = getelementptr i8, ptr %0, i64 16
  %6 = load ptr, ptr %5, align 8
  %7 = ptrtoint ptr %4 to i64
  %8 = ptrtoint ptr %3 to i64
  %9 = ptrtoint ptr %6 to i64
  %10 = sub nuw nsw i64 %9, %7
  %11 = add nuw nsw i64 %7, 8
  %12 = inttoptr i64 %11 to ptr
  %13 = add nuw nsw i64 %8, 8
  %14 = inttoptr i64 %13 to ptr
  tail call void @llvm.memcpy.inline.p0.p0.i64(ptr nonnull align 8 %14, ptr nonnull align 1 %12, i64 16, i1 false)
  %15 = load ptr, ptr %4, align 8, !invariant.group !3
  store ptr %15, ptr %3, align 8, !invariant.group !3
  %16 = getelementptr inbounds i8, ptr %3, i64 %10
  %17 = getelementptr i8, ptr %2, i64 16
  store ptr %16, ptr %17, align 8
  %18 = getelementptr i8, ptr %0, i64 24
  %19 = icmp ugt ptr %6, %18
  br i1 %19, label %20, label %26

20:                                               ; preds = %1
  %21 = getelementptr i8, ptr %2, i64 24
  %22 = load ptr, ptr %21, align 8, !invariant.group !3
  %23 = load i64, ptr %22, align 8
  %24 = add i64 %23, 1
  store i64 %24, ptr %22, align 8
  %25 = icmp ne i64 %23, 0
  tail call void @llvm.assume(i1 %25)
  br label %26

26:                                               ; preds = %20, %1
  ret ptr %2
}

define internal void @"_RNvNvC3muls3_8$closure4drop"(ptr captures(address) %0) {
  %2 = load i64, ptr %0, align 8
  %3 = add i64 %2, -1
  store i64 %3, ptr %0, align 8
  %4 = icmp eq i64 %2, 1
  br i1 %4, label %5, label %20

5:                                                ; preds = %1
  %6 = getelementptr i8, ptr %0, i64 16
  %7 = load ptr, ptr %6, align 8
  %8 = getelementptr i8, ptr %0, i64 24
  %9 = icmp ugt ptr %7, %8
  br i1 %9, label %10, label %19

10:                                               ; preds = %5
  %11 = load ptr, ptr %8, align 8
  %12 = load i64, ptr %11, align 8
  %13 = add i64 %12, -1
  store i64 %13, ptr %11, align 8
  %14 = icmp eq i64 %12, 1
  br i1 %14, label %15, label %17

15:                                               ; preds = %10
  %16 = getelementptr i8, ptr %11, i64 8
  tail call void @_RINvNvC4core9intrinsic13drop_in_placeC5ValueE(ptr %16)
  br label %17

17:                                               ; preds = %15, %10
  %18 = phi ptr [ %11, %15 ], [ null, %10 ]
  tail call void @__reussir_deallocate(ptr %18, i64 8, i64 32)
  br label %19

19:                                               ; preds = %17, %5
  tail call void @__reussir_deallocate(ptr nonnull %0, i64 8, i64 32)
  br label %20

20:                                               ; preds = %19, %1
  ret void
}

define internal ptr @"_RNvNvC2n5s0_8$closure8evaluate"(ptr captures(none) %0) {
  %2 = getelementptr i8, ptr %0, i64 24
  %3 = load ptr, ptr %2, align 8, !invariant.group !3
  %4 = getelementptr i8, ptr %0, i64 32
  %5 = load ptr, ptr %4, align 8, !invariant.group !3
  %6 = load i64, ptr %3, align 8
  %7 = icmp ne i64 %6, 0
  tail call void @llvm.assume(i1 %7)
  %8 = icmp ne i64 %6, -1
  tail call void @llvm.assume(i1 %8)
  %9 = icmp ne i64 %6, -2
  tail call void @llvm.assume(i1 %9)
  %10 = add i64 %6, 4
  store i64 %10, ptr %3, align 8
  %11 = icmp ne i64 %6, -3
  tail call void @llvm.assume(i1 %11)
  %12 = tail call ptr @_RC2ap(ptr nonnull %3, ptr %5)
  %13 = tail call ptr @_RC2ap(ptr nonnull %3, ptr %12)
  %14 = tail call ptr @_RC2ap(ptr nonnull %3, ptr %13)
  %15 = tail call ptr @_RC2ap(ptr nonnull %3, ptr %14)
  %16 = tail call ptr @_RC2ap(ptr nonnull %3, ptr %15)
  %17 = load i64, ptr %0, align 8
  %18 = add i64 %17, -1
  store i64 %18, ptr %0, align 8
  %19 = icmp eq i64 %17, 1
  br i1 %19, label %20, label %21

20:                                               ; preds = %1
  tail call void @__reussir_deallocate(ptr nonnull %0, i64 8, i64 40)
  br label %21

21:                                               ; preds = %20, %1
  ret ptr %16
}

; Function Attrs: mustprogress norecurse nounwind willreturn
define internal noundef ptr @"_RNvNvC2n5s0_8$closure5clone"(ptr %0) #2 {
  %2 = tail call align 8 dereferenceable_or_null(40) ptr @__reussir_allocate(i64 8, i64 40)
  store i64 1, ptr %2, align 8
  %3 = getelementptr i8, ptr %2, i64 8
  %4 = getelementptr i8, ptr %0, i64 8
  %5 = getelementptr i8, ptr %0, i64 16
  %6 = load ptr, ptr %5, align 8
  %7 = ptrtoint ptr %4 to i64
  %8 = ptrtoint ptr %3 to i64
  %9 = ptrtoint ptr %6 to i64
  %10 = sub nuw nsw i64 %9, %7
  %11 = add nuw nsw i64 %7, 8
  %12 = inttoptr i64 %11 to ptr
  %13 = add nuw nsw i64 %8, 8
  %14 = inttoptr i64 %13 to ptr
  tail call void @llvm.memcpy.inline.p0.p0.i64(ptr nonnull align 8 %14, ptr nonnull align 1 %12, i64 24, i1 false)
  %15 = load ptr, ptr %4, align 8, !invariant.group !3
  store ptr %15, ptr %3, align 8, !invariant.group !3
  %16 = getelementptr inbounds i8, ptr %3, i64 %10
  %17 = getelementptr i8, ptr %2, i64 16
  store ptr %16, ptr %17, align 8
  %18 = getelementptr i8, ptr %0, i64 24
  %19 = icmp ugt ptr %6, %18
  br i1 %19, label %20, label %26

20:                                               ; preds = %1
  %21 = getelementptr i8, ptr %2, i64 24
  %22 = load ptr, ptr %21, align 8, !invariant.group !3
  %23 = load i64, ptr %22, align 8
  %24 = add i64 %23, 1
  store i64 %24, ptr %22, align 8
  %25 = icmp ne i64 %23, 0
  tail call void @llvm.assume(i1 %25)
  br label %26

26:                                               ; preds = %20, %1
  %27 = getelementptr i8, ptr %0, i64 32
  %28 = icmp ugt ptr %6, %27
  br i1 %28, label %29, label %35

29:                                               ; preds = %26
  %30 = getelementptr i8, ptr %2, i64 32
  %31 = load ptr, ptr %30, align 8, !invariant.group !3
  %32 = load i64, ptr %31, align 8
  %33 = add i64 %32, 1
  store i64 %33, ptr %31, align 8
  %34 = icmp ne i64 %32, 0
  tail call void @llvm.assume(i1 %34)
  br label %35

35:                                               ; preds = %29, %26
  ret ptr %2
}

define internal void @"_RNvNvC2n5s0_8$closure4drop"(ptr captures(address) %0) {
  %2 = load i64, ptr %0, align 8
  %3 = add i64 %2, -1
  store i64 %3, ptr %0, align 8
  %4 = icmp eq i64 %2, 1
  br i1 %4, label %5, label %32

5:                                                ; preds = %1
  %6 = getelementptr i8, ptr %0, i64 16
  %7 = load ptr, ptr %6, align 8
  %8 = getelementptr i8, ptr %0, i64 24
  %9 = icmp ugt ptr %7, %8
  br i1 %9, label %10, label %19

10:                                               ; preds = %5
  %11 = load ptr, ptr %8, align 8
  %12 = load i64, ptr %11, align 8
  %13 = add i64 %12, -1
  store i64 %13, ptr %11, align 8
  %14 = icmp eq i64 %12, 1
  br i1 %14, label %15, label %17

15:                                               ; preds = %10
  %16 = getelementptr i8, ptr %11, i64 8
  tail call void @_RINvNvC4core9intrinsic13drop_in_placeC5ValueE(ptr %16)
  br label %17

17:                                               ; preds = %15, %10
  %18 = phi ptr [ %11, %15 ], [ null, %10 ]
  tail call void @__reussir_deallocate(ptr %18, i64 8, i64 32)
  br label %19

19:                                               ; preds = %17, %5
  %20 = getelementptr i8, ptr %0, i64 32
  %21 = icmp ugt ptr %7, %20
  br i1 %21, label %22, label %31

22:                                               ; preds = %19
  %23 = load ptr, ptr %20, align 8
  %24 = load i64, ptr %23, align 8
  %25 = add i64 %24, -1
  store i64 %25, ptr %23, align 8
  %26 = icmp eq i64 %24, 1
  br i1 %26, label %27, label %29

27:                                               ; preds = %22
  %28 = getelementptr i8, ptr %23, i64 8
  tail call void @_RINvNvC4core9intrinsic13drop_in_placeC5ValueE(ptr %28)
  br label %29

29:                                               ; preds = %27, %22
  %30 = phi ptr [ %23, %27 ], [ null, %22 ]
  tail call void @__reussir_deallocate(ptr %30, i64 8, i64 32)
  br label %31

31:                                               ; preds = %29, %19
  tail call void @__reussir_deallocate(ptr nonnull %0, i64 8, i64 40)
  br label %32

32:                                               ; preds = %31, %1
  ret void
}

; Function Attrs: mustprogress norecurse nounwind willreturn
define internal noalias noundef ptr @"_RNvNvC2n5s1_8$closure8evaluate"(ptr captures(none) %0) #2 {
  %2 = getelementptr i8, ptr %0, i64 24
  %3 = load ptr, ptr %2, align 8, !invariant.group !3
  %4 = tail call align 8 dereferenceable_or_null(40) ptr @__reussir_allocate(i64 8, i64 40)
  store i64 1, ptr %4, align 8
  %5 = getelementptr i8, ptr %4, i64 8
  store ptr @"_RNvNvC2n5s0_8$closure6vtable", ptr %5, align 8, !invariant.group !3
  %6 = getelementptr i8, ptr %4, i64 16
  %7 = getelementptr i8, ptr %4, i64 24
  %8 = ptrtoint ptr %7 to i64
  store ptr %3, ptr %7, align 8, !invariant.group !3
  %9 = add nuw i64 %8, 8
  %10 = inttoptr i64 %9 to ptr
  store ptr %10, ptr %6, align 8
  %11 = tail call align 8 dereferenceable_or_null(32) ptr @__reussir_allocate(i64 8, i64 32)
  store i64 1, ptr %11, align 8
  %12 = getelementptr i8, ptr %11, i64 8
  store i64 2, ptr %12, align 8
  %.repack4 = getelementptr i8, ptr %11, i64 16
  store i64 1, ptr %.repack4, align 8
  %.repack4.repack6 = getelementptr i8, ptr %11, i64 24
  store ptr %4, ptr %.repack4.repack6, align 8
  %13 = load i64, ptr %0, align 8
  %14 = add i64 %13, -1
  store i64 %14, ptr %0, align 8
  %15 = icmp eq i64 %13, 1
  br i1 %15, label %16, label %17

16:                                               ; preds = %1
  tail call void @__reussir_deallocate(ptr nonnull %0, i64 8, i64 32)
  br label %17

17:                                               ; preds = %16, %1
  ret ptr %11
}

; Function Attrs: mustprogress norecurse nounwind willreturn
define internal noundef ptr @"_RNvNvC2n5s1_8$closure5clone"(ptr %0) #2 {
  %2 = tail call align 8 dereferenceable_or_null(32) ptr @__reussir_allocate(i64 8, i64 32)
  store i64 1, ptr %2, align 8
  %3 = getelementptr i8, ptr %2, i64 8
  %4 = getelementptr i8, ptr %0, i64 8
  %5 = getelementptr i8, ptr %0, i64 16
  %6 = load ptr, ptr %5, align 8
  %7 = ptrtoint ptr %4 to i64
  %8 = ptrtoint ptr %3 to i64
  %9 = ptrtoint ptr %6 to i64
  %10 = sub nuw nsw i64 %9, %7
  %11 = add nuw nsw i64 %7, 8
  %12 = inttoptr i64 %11 to ptr
  %13 = add nuw nsw i64 %8, 8
  %14 = inttoptr i64 %13 to ptr
  tail call void @llvm.memcpy.inline.p0.p0.i64(ptr nonnull align 8 %14, ptr nonnull align 1 %12, i64 16, i1 false)
  %15 = load ptr, ptr %4, align 8, !invariant.group !3
  store ptr %15, ptr %3, align 8, !invariant.group !3
  %16 = getelementptr inbounds i8, ptr %3, i64 %10
  %17 = getelementptr i8, ptr %2, i64 16
  store ptr %16, ptr %17, align 8
  %18 = getelementptr i8, ptr %0, i64 24
  %19 = icmp ugt ptr %6, %18
  br i1 %19, label %20, label %26

20:                                               ; preds = %1
  %21 = getelementptr i8, ptr %2, i64 24
  %22 = load ptr, ptr %21, align 8, !invariant.group !3
  %23 = load i64, ptr %22, align 8
  %24 = add i64 %23, 1
  store i64 %24, ptr %22, align 8
  %25 = icmp ne i64 %23, 0
  tail call void @llvm.assume(i1 %25)
  br label %26

26:                                               ; preds = %20, %1
  ret ptr %2
}

define internal void @"_RNvNvC2n5s1_8$closure4drop"(ptr captures(address) %0) {
  %2 = load i64, ptr %0, align 8
  %3 = add i64 %2, -1
  store i64 %3, ptr %0, align 8
  %4 = icmp eq i64 %2, 1
  br i1 %4, label %5, label %20

5:                                                ; preds = %1
  %6 = getelementptr i8, ptr %0, i64 16
  %7 = load ptr, ptr %6, align 8
  %8 = getelementptr i8, ptr %0, i64 24
  %9 = icmp ugt ptr %7, %8
  br i1 %9, label %10, label %19

10:                                               ; preds = %5
  %11 = load ptr, ptr %8, align 8
  %12 = load i64, ptr %11, align 8
  %13 = add i64 %12, -1
  store i64 %13, ptr %11, align 8
  %14 = icmp eq i64 %12, 1
  br i1 %14, label %15, label %17

15:                                               ; preds = %10
  %16 = getelementptr i8, ptr %11, i64 8
  tail call void @_RINvNvC4core9intrinsic13drop_in_placeC5ValueE(ptr %16)
  br label %17

17:                                               ; preds = %15, %10
  %18 = phi ptr [ %11, %15 ], [ null, %10 ]
  tail call void @__reussir_deallocate(ptr %18, i64 8, i64 32)
  br label %19

19:                                               ; preds = %17, %5
  tail call void @__reussir_deallocate(ptr nonnull %0, i64 8, i64 32)
  br label %20

20:                                               ; preds = %19, %1
  ret void
}

define internal ptr @"_RNvNvC3sucs0_8$closure8evaluate"(ptr captures(none) %0) {
  %2 = getelementptr i8, ptr %0, i64 24
  %3 = load ptr, ptr %2, align 8, !invariant.group !3
  %4 = getelementptr i8, ptr %0, i64 32
  %5 = load ptr, ptr %4, align 8, !invariant.group !3
  %6 = getelementptr i8, ptr %0, i64 40
  %7 = load ptr, ptr %6, align 8, !invariant.group !3
  %8 = load i64, ptr %5, align 8
  %9 = add i64 %8, 1
  store i64 %9, ptr %5, align 8
  %10 = icmp ne i64 %8, 0
  tail call void @llvm.assume(i1 %10)
  %11 = tail call ptr @_RC3ap2(ptr %3, ptr nonnull %5, ptr %7)
  %12 = tail call ptr @_RC2ap(ptr nonnull %5, ptr %11)
  %13 = load i64, ptr %0, align 8
  %14 = add i64 %13, -1
  store i64 %14, ptr %0, align 8
  %15 = icmp eq i64 %13, 1
  br i1 %15, label %16, label %17

16:                                               ; preds = %1
  tail call void @__reussir_deallocate(ptr nonnull %0, i64 8, i64 48)
  br label %17

17:                                               ; preds = %16, %1
  ret ptr %12
}

; Function Attrs: mustprogress norecurse nounwind willreturn
define internal noundef ptr @"_RNvNvC3sucs0_8$closure5clone"(ptr %0) #2 {
  %2 = tail call align 8 dereferenceable_or_null(48) ptr @__reussir_allocate(i64 8, i64 48)
  store i64 1, ptr %2, align 8
  %3 = getelementptr i8, ptr %2, i64 8
  %4 = getelementptr i8, ptr %0, i64 8
  %5 = getelementptr i8, ptr %0, i64 16
  %6 = load ptr, ptr %5, align 8
  %7 = ptrtoint ptr %4 to i64
  %8 = ptrtoint ptr %3 to i64
  %9 = ptrtoint ptr %6 to i64
  %10 = sub nuw nsw i64 %9, %7
  %11 = add nuw nsw i64 %7, 8
  %12 = inttoptr i64 %11 to ptr
  %13 = add nuw nsw i64 %8, 8
  %14 = inttoptr i64 %13 to ptr
  tail call void @llvm.memcpy.inline.p0.p0.i64(ptr nonnull align 8 %14, ptr nonnull align 1 %12, i64 32, i1 false)
  %15 = load ptr, ptr %4, align 8, !invariant.group !3
  store ptr %15, ptr %3, align 8, !invariant.group !3
  %16 = getelementptr inbounds i8, ptr %3, i64 %10
  %17 = getelementptr i8, ptr %2, i64 16
  store ptr %16, ptr %17, align 8
  %18 = getelementptr i8, ptr %0, i64 24
  %19 = icmp ugt ptr %6, %18
  br i1 %19, label %20, label %26

20:                                               ; preds = %1
  %21 = getelementptr i8, ptr %2, i64 24
  %22 = load ptr, ptr %21, align 8, !invariant.group !3
  %23 = load i64, ptr %22, align 8
  %24 = add i64 %23, 1
  store i64 %24, ptr %22, align 8
  %25 = icmp ne i64 %23, 0
  tail call void @llvm.assume(i1 %25)
  br label %26

26:                                               ; preds = %20, %1
  %27 = getelementptr i8, ptr %0, i64 32
  %28 = icmp ugt ptr %6, %27
  br i1 %28, label %29, label %35

29:                                               ; preds = %26
  %30 = getelementptr i8, ptr %2, i64 32
  %31 = load ptr, ptr %30, align 8, !invariant.group !3
  %32 = load i64, ptr %31, align 8
  %33 = add i64 %32, 1
  store i64 %33, ptr %31, align 8
  %34 = icmp ne i64 %32, 0
  tail call void @llvm.assume(i1 %34)
  br label %35

35:                                               ; preds = %29, %26
  %36 = getelementptr i8, ptr %0, i64 40
  %37 = icmp ugt ptr %6, %36
  br i1 %37, label %38, label %44

38:                                               ; preds = %35
  %39 = getelementptr i8, ptr %2, i64 40
  %40 = load ptr, ptr %39, align 8, !invariant.group !3
  %41 = load i64, ptr %40, align 8
  %42 = add i64 %41, 1
  store i64 %42, ptr %40, align 8
  %43 = icmp ne i64 %41, 0
  tail call void @llvm.assume(i1 %43)
  br label %44

44:                                               ; preds = %38, %35
  ret ptr %2
}

define internal void @"_RNvNvC3sucs0_8$closure4drop"(ptr captures(address) %0) {
  %2 = load i64, ptr %0, align 8
  %3 = add i64 %2, -1
  store i64 %3, ptr %0, align 8
  %4 = icmp eq i64 %2, 1
  br i1 %4, label %5, label %44

5:                                                ; preds = %1
  %6 = getelementptr i8, ptr %0, i64 16
  %7 = load ptr, ptr %6, align 8
  %8 = getelementptr i8, ptr %0, i64 24
  %9 = icmp ugt ptr %7, %8
  br i1 %9, label %10, label %19

10:                                               ; preds = %5
  %11 = load ptr, ptr %8, align 8
  %12 = load i64, ptr %11, align 8
  %13 = add i64 %12, -1
  store i64 %13, ptr %11, align 8
  %14 = icmp eq i64 %12, 1
  br i1 %14, label %15, label %17

15:                                               ; preds = %10
  %16 = getelementptr i8, ptr %11, i64 8
  tail call void @_RINvNvC4core9intrinsic13drop_in_placeC5ValueE(ptr %16)
  br label %17

17:                                               ; preds = %15, %10
  %18 = phi ptr [ %11, %15 ], [ null, %10 ]
  tail call void @__reussir_deallocate(ptr %18, i64 8, i64 32)
  br label %19

19:                                               ; preds = %17, %5
  %20 = getelementptr i8, ptr %0, i64 32
  %21 = icmp ugt ptr %7, %20
  br i1 %21, label %22, label %31

22:                                               ; preds = %19
  %23 = load ptr, ptr %20, align 8
  %24 = load i64, ptr %23, align 8
  %25 = add i64 %24, -1
  store i64 %25, ptr %23, align 8
  %26 = icmp eq i64 %24, 1
  br i1 %26, label %27, label %29

27:                                               ; preds = %22
  %28 = getelementptr i8, ptr %23, i64 8
  tail call void @_RINvNvC4core9intrinsic13drop_in_placeC5ValueE(ptr %28)
  br label %29

29:                                               ; preds = %27, %22
  %30 = phi ptr [ %23, %27 ], [ null, %22 ]
  tail call void @__reussir_deallocate(ptr %30, i64 8, i64 32)
  br label %31

31:                                               ; preds = %29, %19
  %32 = getelementptr i8, ptr %0, i64 40
  %33 = icmp ugt ptr %7, %32
  br i1 %33, label %34, label %43

34:                                               ; preds = %31
  %35 = load ptr, ptr %32, align 8
  %36 = load i64, ptr %35, align 8
  %37 = add i64 %36, -1
  store i64 %37, ptr %35, align 8
  %38 = icmp eq i64 %36, 1
  br i1 %38, label %39, label %41

39:                                               ; preds = %34
  %40 = getelementptr i8, ptr %35, i64 8
  tail call void @_RINvNvC4core9intrinsic13drop_in_placeC5ValueE(ptr %40)
  br label %41

41:                                               ; preds = %39, %34
  %42 = phi ptr [ %35, %39 ], [ null, %34 ]
  tail call void @__reussir_deallocate(ptr %42, i64 8, i64 32)
  br label %43

43:                                               ; preds = %41, %31
  tail call void @__reussir_deallocate(ptr nonnull %0, i64 8, i64 48)
  br label %44

44:                                               ; preds = %43, %1
  ret void
}

; Function Attrs: mustprogress norecurse nounwind willreturn
define internal noalias noundef ptr @"_RNvNvC3sucs1_8$closure8evaluate"(ptr captures(none) %0) #2 {
  %2 = getelementptr i8, ptr %0, i64 24
  %3 = load ptr, ptr %2, align 8, !invariant.group !3
  %4 = getelementptr i8, ptr %0, i64 32
  %5 = load ptr, ptr %4, align 8, !invariant.group !3
  %6 = tail call align 8 dereferenceable_or_null(48) ptr @__reussir_allocate(i64 8, i64 48)
  store i64 1, ptr %6, align 8
  %7 = getelementptr i8, ptr %6, i64 8
  store ptr @"_RNvNvC3sucs0_8$closure6vtable", ptr %7, align 8, !invariant.group !3
  %8 = getelementptr i8, ptr %6, i64 16
  %9 = getelementptr i8, ptr %6, i64 24
  %10 = ptrtoint ptr %9 to i64
  store ptr %3, ptr %9, align 8, !invariant.group !3
  %11 = add nuw i64 %10, 8
  %12 = inttoptr i64 %11 to ptr
  store ptr %5, ptr %12, align 8, !invariant.group !3
  %13 = add nuw i64 %10, 16
  %14 = inttoptr i64 %13 to ptr
  store ptr %14, ptr %8, align 8
  %15 = tail call align 8 dereferenceable_or_null(32) ptr @__reussir_allocate(i64 8, i64 32)
  store i64 1, ptr %15, align 8
  %16 = getelementptr i8, ptr %15, i64 8
  store i64 2, ptr %16, align 8
  %.repack4 = getelementptr i8, ptr %15, i64 16
  store i64 1, ptr %.repack4, align 8
  %.repack4.repack6 = getelementptr i8, ptr %15, i64 24
  store ptr %6, ptr %.repack4.repack6, align 8
  %17 = load i64, ptr %0, align 8
  %18 = add i64 %17, -1
  store i64 %18, ptr %0, align 8
  %19 = icmp eq i64 %17, 1
  br i1 %19, label %20, label %21

20:                                               ; preds = %1
  tail call void @__reussir_deallocate(ptr nonnull %0, i64 8, i64 40)
  br label %21

21:                                               ; preds = %20, %1
  ret ptr %15
}

; Function Attrs: mustprogress norecurse nounwind willreturn
define internal noundef ptr @"_RNvNvC3sucs1_8$closure5clone"(ptr %0) #2 {
  %2 = tail call align 8 dereferenceable_or_null(40) ptr @__reussir_allocate(i64 8, i64 40)
  store i64 1, ptr %2, align 8
  %3 = getelementptr i8, ptr %2, i64 8
  %4 = getelementptr i8, ptr %0, i64 8
  %5 = getelementptr i8, ptr %0, i64 16
  %6 = load ptr, ptr %5, align 8
  %7 = ptrtoint ptr %4 to i64
  %8 = ptrtoint ptr %3 to i64
  %9 = ptrtoint ptr %6 to i64
  %10 = sub nuw nsw i64 %9, %7
  %11 = add nuw nsw i64 %7, 8
  %12 = inttoptr i64 %11 to ptr
  %13 = add nuw nsw i64 %8, 8
  %14 = inttoptr i64 %13 to ptr
  tail call void @llvm.memcpy.inline.p0.p0.i64(ptr nonnull align 8 %14, ptr nonnull align 1 %12, i64 24, i1 false)
  %15 = load ptr, ptr %4, align 8, !invariant.group !3
  store ptr %15, ptr %3, align 8, !invariant.group !3
  %16 = getelementptr inbounds i8, ptr %3, i64 %10
  %17 = getelementptr i8, ptr %2, i64 16
  store ptr %16, ptr %17, align 8
  %18 = getelementptr i8, ptr %0, i64 24
  %19 = icmp ugt ptr %6, %18
  br i1 %19, label %20, label %26

20:                                               ; preds = %1
  %21 = getelementptr i8, ptr %2, i64 24
  %22 = load ptr, ptr %21, align 8, !invariant.group !3
  %23 = load i64, ptr %22, align 8
  %24 = add i64 %23, 1
  store i64 %24, ptr %22, align 8
  %25 = icmp ne i64 %23, 0
  tail call void @llvm.assume(i1 %25)
  br label %26

26:                                               ; preds = %20, %1
  %27 = getelementptr i8, ptr %0, i64 32
  %28 = icmp ugt ptr %6, %27
  br i1 %28, label %29, label %35

29:                                               ; preds = %26
  %30 = getelementptr i8, ptr %2, i64 32
  %31 = load ptr, ptr %30, align 8, !invariant.group !3
  %32 = load i64, ptr %31, align 8
  %33 = add i64 %32, 1
  store i64 %33, ptr %31, align 8
  %34 = icmp ne i64 %32, 0
  tail call void @llvm.assume(i1 %34)
  br label %35

35:                                               ; preds = %29, %26
  ret ptr %2
}

define internal void @"_RNvNvC3sucs1_8$closure4drop"(ptr captures(address) %0) {
  %2 = load i64, ptr %0, align 8
  %3 = add i64 %2, -1
  store i64 %3, ptr %0, align 8
  %4 = icmp eq i64 %2, 1
  br i1 %4, label %5, label %32

5:                                                ; preds = %1
  %6 = getelementptr i8, ptr %0, i64 16
  %7 = load ptr, ptr %6, align 8
  %8 = getelementptr i8, ptr %0, i64 24
  %9 = icmp ugt ptr %7, %8
  br i1 %9, label %10, label %19

10:                                               ; preds = %5
  %11 = load ptr, ptr %8, align 8
  %12 = load i64, ptr %11, align 8
  %13 = add i64 %12, -1
  store i64 %13, ptr %11, align 8
  %14 = icmp eq i64 %12, 1
  br i1 %14, label %15, label %17

15:                                               ; preds = %10
  %16 = getelementptr i8, ptr %11, i64 8
  tail call void @_RINvNvC4core9intrinsic13drop_in_placeC5ValueE(ptr %16)
  br label %17

17:                                               ; preds = %15, %10
  %18 = phi ptr [ %11, %15 ], [ null, %10 ]
  tail call void @__reussir_deallocate(ptr %18, i64 8, i64 32)
  br label %19

19:                                               ; preds = %17, %5
  %20 = getelementptr i8, ptr %0, i64 32
  %21 = icmp ugt ptr %7, %20
  br i1 %21, label %22, label %31

22:                                               ; preds = %19
  %23 = load ptr, ptr %20, align 8
  %24 = load i64, ptr %23, align 8
  %25 = add i64 %24, -1
  store i64 %25, ptr %23, align 8
  %26 = icmp eq i64 %24, 1
  br i1 %26, label %27, label %29

27:                                               ; preds = %22
  %28 = getelementptr i8, ptr %23, i64 8
  tail call void @_RINvNvC4core9intrinsic13drop_in_placeC5ValueE(ptr %28)
  br label %29

29:                                               ; preds = %27, %22
  %30 = phi ptr [ %23, %27 ], [ null, %22 ]
  tail call void @__reussir_deallocate(ptr %30, i64 8, i64 32)
  br label %31

31:                                               ; preds = %29, %19
  tail call void @__reussir_deallocate(ptr nonnull %0, i64 8, i64 40)
  br label %32

32:                                               ; preds = %31, %1
  ret void
}

define internal ptr @"_RNvNvC2n2s0_8$closure8evaluate"(ptr captures(none) %0) {
  %2 = getelementptr i8, ptr %0, i64 24
  %3 = load ptr, ptr %2, align 8, !invariant.group !3
  %4 = getelementptr i8, ptr %0, i64 32
  %5 = load ptr, ptr %4, align 8, !invariant.group !3
  %6 = load i64, ptr %3, align 8
  %7 = add i64 %6, 1
  store i64 %7, ptr %3, align 8
  %8 = icmp ne i64 %6, 0
  tail call void @llvm.assume(i1 %8)
  %9 = tail call ptr @_RC2ap(ptr nonnull %3, ptr %5)
  %10 = tail call ptr @_RC2ap(ptr nonnull %3, ptr %9)
  %11 = load i64, ptr %0, align 8
  %12 = add i64 %11, -1
  store i64 %12, ptr %0, align 8
  %13 = icmp eq i64 %11, 1
  br i1 %13, label %14, label %15

14:                                               ; preds = %1
  tail call void @__reussir_deallocate(ptr nonnull %0, i64 8, i64 40)
  br label %15

15:                                               ; preds = %14, %1
  ret ptr %10
}

; Function Attrs: mustprogress norecurse nounwind willreturn
define internal noundef ptr @"_RNvNvC2n2s0_8$closure5clone"(ptr %0) #2 {
  %2 = tail call align 8 dereferenceable_or_null(40) ptr @__reussir_allocate(i64 8, i64 40)
  store i64 1, ptr %2, align 8
  %3 = getelementptr i8, ptr %2, i64 8
  %4 = getelementptr i8, ptr %0, i64 8
  %5 = getelementptr i8, ptr %0, i64 16
  %6 = load ptr, ptr %5, align 8
  %7 = ptrtoint ptr %4 to i64
  %8 = ptrtoint ptr %3 to i64
  %9 = ptrtoint ptr %6 to i64
  %10 = sub nuw nsw i64 %9, %7
  %11 = add nuw nsw i64 %7, 8
  %12 = inttoptr i64 %11 to ptr
  %13 = add nuw nsw i64 %8, 8
  %14 = inttoptr i64 %13 to ptr
  tail call void @llvm.memcpy.inline.p0.p0.i64(ptr nonnull align 8 %14, ptr nonnull align 1 %12, i64 24, i1 false)
  %15 = load ptr, ptr %4, align 8, !invariant.group !3
  store ptr %15, ptr %3, align 8, !invariant.group !3
  %16 = getelementptr inbounds i8, ptr %3, i64 %10
  %17 = getelementptr i8, ptr %2, i64 16
  store ptr %16, ptr %17, align 8
  %18 = getelementptr i8, ptr %0, i64 24
  %19 = icmp ugt ptr %6, %18
  br i1 %19, label %20, label %26

20:                                               ; preds = %1
  %21 = getelementptr i8, ptr %2, i64 24
  %22 = load ptr, ptr %21, align 8, !invariant.group !3
  %23 = load i64, ptr %22, align 8
  %24 = add i64 %23, 1
  store i64 %24, ptr %22, align 8
  %25 = icmp ne i64 %23, 0
  tail call void @llvm.assume(i1 %25)
  br label %26

26:                                               ; preds = %20, %1
  %27 = getelementptr i8, ptr %0, i64 32
  %28 = icmp ugt ptr %6, %27
  br i1 %28, label %29, label %35

29:                                               ; preds = %26
  %30 = getelementptr i8, ptr %2, i64 32
  %31 = load ptr, ptr %30, align 8, !invariant.group !3
  %32 = load i64, ptr %31, align 8
  %33 = add i64 %32, 1
  store i64 %33, ptr %31, align 8
  %34 = icmp ne i64 %32, 0
  tail call void @llvm.assume(i1 %34)
  br label %35

35:                                               ; preds = %29, %26
  ret ptr %2
}

define internal void @"_RNvNvC2n2s0_8$closure4drop"(ptr captures(address) %0) {
  %2 = load i64, ptr %0, align 8
  %3 = add i64 %2, -1
  store i64 %3, ptr %0, align 8
  %4 = icmp eq i64 %2, 1
  br i1 %4, label %5, label %32

5:                                                ; preds = %1
  %6 = getelementptr i8, ptr %0, i64 16
  %7 = load ptr, ptr %6, align 8
  %8 = getelementptr i8, ptr %0, i64 24
  %9 = icmp ugt ptr %7, %8
  br i1 %9, label %10, label %19

10:                                               ; preds = %5
  %11 = load ptr, ptr %8, align 8
  %12 = load i64, ptr %11, align 8
  %13 = add i64 %12, -1
  store i64 %13, ptr %11, align 8
  %14 = icmp eq i64 %12, 1
  br i1 %14, label %15, label %17

15:                                               ; preds = %10
  %16 = getelementptr i8, ptr %11, i64 8
  tail call void @_RINvNvC4core9intrinsic13drop_in_placeC5ValueE(ptr %16)
  br label %17

17:                                               ; preds = %15, %10
  %18 = phi ptr [ %11, %15 ], [ null, %10 ]
  tail call void @__reussir_deallocate(ptr %18, i64 8, i64 32)
  br label %19

19:                                               ; preds = %17, %5
  %20 = getelementptr i8, ptr %0, i64 32
  %21 = icmp ugt ptr %7, %20
  br i1 %21, label %22, label %31

22:                                               ; preds = %19
  %23 = load ptr, ptr %20, align 8
  %24 = load i64, ptr %23, align 8
  %25 = add i64 %24, -1
  store i64 %25, ptr %23, align 8
  %26 = icmp eq i64 %24, 1
  br i1 %26, label %27, label %29

27:                                               ; preds = %22
  %28 = getelementptr i8, ptr %23, i64 8
  tail call void @_RINvNvC4core9intrinsic13drop_in_placeC5ValueE(ptr %28)
  br label %29

29:                                               ; preds = %27, %22
  %30 = phi ptr [ %23, %27 ], [ null, %22 ]
  tail call void @__reussir_deallocate(ptr %30, i64 8, i64 32)
  br label %31

31:                                               ; preds = %29, %19
  tail call void @__reussir_deallocate(ptr nonnull %0, i64 8, i64 40)
  br label %32

32:                                               ; preds = %31, %1
  ret void
}

; Function Attrs: mustprogress norecurse nounwind willreturn
define internal noalias noundef ptr @"_RNvNvC2n2s1_8$closure8evaluate"(ptr captures(none) %0) #2 {
  %2 = getelementptr i8, ptr %0, i64 24
  %3 = load ptr, ptr %2, align 8, !invariant.group !3
  %4 = tail call align 8 dereferenceable_or_null(40) ptr @__reussir_allocate(i64 8, i64 40)
  store i64 1, ptr %4, align 8
  %5 = getelementptr i8, ptr %4, i64 8
  store ptr @"_RNvNvC2n2s0_8$closure6vtable", ptr %5, align 8, !invariant.group !3
  %6 = getelementptr i8, ptr %4, i64 16
  %7 = getelementptr i8, ptr %4, i64 24
  %8 = ptrtoint ptr %7 to i64
  store ptr %3, ptr %7, align 8, !invariant.group !3
  %9 = add nuw i64 %8, 8
  %10 = inttoptr i64 %9 to ptr
  store ptr %10, ptr %6, align 8
  %11 = tail call align 8 dereferenceable_or_null(32) ptr @__reussir_allocate(i64 8, i64 32)
  store i64 1, ptr %11, align 8
  %12 = getelementptr i8, ptr %11, i64 8
  store i64 2, ptr %12, align 8
  %.repack4 = getelementptr i8, ptr %11, i64 16
  store i64 1, ptr %.repack4, align 8
  %.repack4.repack6 = getelementptr i8, ptr %11, i64 24
  store ptr %4, ptr %.repack4.repack6, align 8
  %13 = load i64, ptr %0, align 8
  %14 = add i64 %13, -1
  store i64 %14, ptr %0, align 8
  %15 = icmp eq i64 %13, 1
  br i1 %15, label %16, label %17

16:                                               ; preds = %1
  tail call void @__reussir_deallocate(ptr nonnull %0, i64 8, i64 32)
  br label %17

17:                                               ; preds = %16, %1
  ret ptr %11
}

; Function Attrs: mustprogress norecurse nounwind willreturn
define internal noundef ptr @"_RNvNvC2n2s1_8$closure5clone"(ptr %0) #2 {
  %2 = tail call align 8 dereferenceable_or_null(32) ptr @__reussir_allocate(i64 8, i64 32)
  store i64 1, ptr %2, align 8
  %3 = getelementptr i8, ptr %2, i64 8
  %4 = getelementptr i8, ptr %0, i64 8
  %5 = getelementptr i8, ptr %0, i64 16
  %6 = load ptr, ptr %5, align 8
  %7 = ptrtoint ptr %4 to i64
  %8 = ptrtoint ptr %3 to i64
  %9 = ptrtoint ptr %6 to i64
  %10 = sub nuw nsw i64 %9, %7
  %11 = add nuw nsw i64 %7, 8
  %12 = inttoptr i64 %11 to ptr
  %13 = add nuw nsw i64 %8, 8
  %14 = inttoptr i64 %13 to ptr
  tail call void @llvm.memcpy.inline.p0.p0.i64(ptr nonnull align 8 %14, ptr nonnull align 1 %12, i64 16, i1 false)
  %15 = load ptr, ptr %4, align 8, !invariant.group !3
  store ptr %15, ptr %3, align 8, !invariant.group !3
  %16 = getelementptr inbounds i8, ptr %3, i64 %10
  %17 = getelementptr i8, ptr %2, i64 16
  store ptr %16, ptr %17, align 8
  %18 = getelementptr i8, ptr %0, i64 24
  %19 = icmp ugt ptr %6, %18
  br i1 %19, label %20, label %26

20:                                               ; preds = %1
  %21 = getelementptr i8, ptr %2, i64 24
  %22 = load ptr, ptr %21, align 8, !invariant.group !3
  %23 = load i64, ptr %22, align 8
  %24 = add i64 %23, 1
  store i64 %24, ptr %22, align 8
  %25 = icmp ne i64 %23, 0
  tail call void @llvm.assume(i1 %25)
  br label %26

26:                                               ; preds = %20, %1
  ret ptr %2
}

define internal void @"_RNvNvC2n2s1_8$closure4drop"(ptr captures(address) %0) {
  %2 = load i64, ptr %0, align 8
  %3 = add i64 %2, -1
  store i64 %3, ptr %0, align 8
  %4 = icmp eq i64 %2, 1
  br i1 %4, label %5, label %20

5:                                                ; preds = %1
  %6 = getelementptr i8, ptr %0, i64 16
  %7 = load ptr, ptr %6, align 8
  %8 = getelementptr i8, ptr %0, i64 24
  %9 = icmp ugt ptr %7, %8
  br i1 %9, label %10, label %19

10:                                               ; preds = %5
  %11 = load ptr, ptr %8, align 8
  %12 = load i64, ptr %11, align 8
  %13 = add i64 %12, -1
  store i64 %13, ptr %11, align 8
  %14 = icmp eq i64 %12, 1
  br i1 %14, label %15, label %17

15:                                               ; preds = %10
  %16 = getelementptr i8, ptr %11, i64 8
  tail call void @_RINvNvC4core9intrinsic13drop_in_placeC5ValueE(ptr %16)
  br label %17

17:                                               ; preds = %15, %10
  %18 = phi ptr [ %11, %15 ], [ null, %10 ]
  tail call void @__reussir_deallocate(ptr %18, i64 8, i64 32)
  br label %19

19:                                               ; preds = %17, %5
  tail call void @__reussir_deallocate(ptr nonnull %0, i64 8, i64 32)
  br label %20

20:                                               ; preds = %19, %1
  ret void
}

define internal ptr @"_RNvNvC12hoascbv_tests0_8$closure8evaluate"(ptr captures(none) %0) {
  %2 = getelementptr i8, ptr %0, i64 24
  %3 = load ptr, ptr %2, align 8, !invariant.group !3
  %4 = getelementptr i8, ptr %0, i64 32
  %5 = load ptr, ptr %4, align 8, !invariant.group !3
  %6 = getelementptr i8, ptr %0, i64 40
  %7 = load ptr, ptr %6, align 8, !invariant.group !3
  %8 = getelementptr i8, ptr %0, i64 48
  %9 = load ptr, ptr %8, align 8, !invariant.group !3
  %10 = tail call ptr @_RC2ap(ptr %5, ptr %7)
  %11 = tail call ptr @_RC2ap(ptr %3, ptr %10)
  %12 = tail call ptr @_RC2ap(ptr %11, ptr %9)
  %13 = load i64, ptr %0, align 8
  %14 = add i64 %13, -1
  store i64 %14, ptr %0, align 8
  %15 = icmp eq i64 %13, 1
  br i1 %15, label %16, label %17

16:                                               ; preds = %1
  tail call void @__reussir_deallocate(ptr nonnull %0, i64 8, i64 56)
  br label %17

17:                                               ; preds = %16, %1
  ret ptr %12
}

; Function Attrs: mustprogress norecurse nounwind willreturn
define internal noundef ptr @"_RNvNvC12hoascbv_tests0_8$closure5clone"(ptr %0) #2 {
  %2 = tail call align 8 dereferenceable_or_null(56) ptr @__reussir_allocate(i64 8, i64 56)
  store i64 1, ptr %2, align 8
  %3 = getelementptr i8, ptr %2, i64 8
  %4 = getelementptr i8, ptr %0, i64 8
  %5 = getelementptr i8, ptr %0, i64 16
  %6 = load ptr, ptr %5, align 8
  %7 = ptrtoint ptr %4 to i64
  %8 = ptrtoint ptr %3 to i64
  %9 = ptrtoint ptr %6 to i64
  %10 = sub nuw nsw i64 %9, %7
  %11 = add nsw i64 %10, -8
  %12 = add nuw nsw i64 %7, 8
  %13 = inttoptr i64 %12 to ptr
  %14 = add nuw nsw i64 %8, 8
  %15 = inttoptr i64 %14 to ptr
  tail call void @llvm.memcpy.p0.p0.i64(ptr nonnull align 8 %15, ptr nonnull align 1 %13, i64 %11, i1 false)
  %16 = load ptr, ptr %4, align 8, !invariant.group !3
  store ptr %16, ptr %3, align 8, !invariant.group !3
  %17 = getelementptr inbounds i8, ptr %3, i64 %10
  %18 = getelementptr i8, ptr %2, i64 16
  store ptr %17, ptr %18, align 8
  %19 = getelementptr i8, ptr %0, i64 24
  %20 = icmp ugt ptr %6, %19
  br i1 %20, label %21, label %27

21:                                               ; preds = %1
  %22 = getelementptr i8, ptr %2, i64 24
  %23 = load ptr, ptr %22, align 8, !invariant.group !3
  %24 = load i64, ptr %23, align 8
  %25 = add i64 %24, 1
  store i64 %25, ptr %23, align 8
  %26 = icmp ne i64 %24, 0
  tail call void @llvm.assume(i1 %26)
  br label %27

27:                                               ; preds = %21, %1
  %28 = getelementptr i8, ptr %0, i64 32
  %29 = icmp ugt ptr %6, %28
  br i1 %29, label %30, label %36

30:                                               ; preds = %27
  %31 = getelementptr i8, ptr %2, i64 32
  %32 = load ptr, ptr %31, align 8, !invariant.group !3
  %33 = load i64, ptr %32, align 8
  %34 = add i64 %33, 1
  store i64 %34, ptr %32, align 8
  %35 = icmp ne i64 %33, 0
  tail call void @llvm.assume(i1 %35)
  br label %36

36:                                               ; preds = %30, %27
  %37 = getelementptr i8, ptr %0, i64 40
  %38 = icmp ugt ptr %6, %37
  br i1 %38, label %39, label %45

39:                                               ; preds = %36
  %40 = getelementptr i8, ptr %2, i64 40
  %41 = load ptr, ptr %40, align 8, !invariant.group !3
  %42 = load i64, ptr %41, align 8
  %43 = add i64 %42, 1
  store i64 %43, ptr %41, align 8
  %44 = icmp ne i64 %42, 0
  tail call void @llvm.assume(i1 %44)
  br label %45

45:                                               ; preds = %39, %36
  %46 = getelementptr i8, ptr %0, i64 48
  %47 = icmp ugt ptr %6, %46
  br i1 %47, label %48, label %54

48:                                               ; preds = %45
  %49 = getelementptr i8, ptr %2, i64 48
  %50 = load ptr, ptr %49, align 8, !invariant.group !3
  %51 = load i64, ptr %50, align 8
  %52 = add i64 %51, 1
  store i64 %52, ptr %50, align 8
  %53 = icmp ne i64 %51, 0
  tail call void @llvm.assume(i1 %53)
  br label %54

54:                                               ; preds = %48, %45
  ret ptr %2
}

define internal void @"_RNvNvC12hoascbv_tests0_8$closure4drop"(ptr captures(address) %0) {
  %2 = load i64, ptr %0, align 8
  %3 = add i64 %2, -1
  store i64 %3, ptr %0, align 8
  %4 = icmp eq i64 %2, 1
  br i1 %4, label %5, label %56

5:                                                ; preds = %1
  %6 = getelementptr i8, ptr %0, i64 16
  %7 = load ptr, ptr %6, align 8
  %8 = getelementptr i8, ptr %0, i64 24
  %9 = icmp ugt ptr %7, %8
  br i1 %9, label %10, label %19

10:                                               ; preds = %5
  %11 = load ptr, ptr %8, align 8
  %12 = load i64, ptr %11, align 8
  %13 = add i64 %12, -1
  store i64 %13, ptr %11, align 8
  %14 = icmp eq i64 %12, 1
  br i1 %14, label %15, label %17

15:                                               ; preds = %10
  %16 = getelementptr i8, ptr %11, i64 8
  tail call void @_RINvNvC4core9intrinsic13drop_in_placeC5ValueE(ptr %16)
  br label %17

17:                                               ; preds = %15, %10
  %18 = phi ptr [ %11, %15 ], [ null, %10 ]
  tail call void @__reussir_deallocate(ptr %18, i64 8, i64 32)
  br label %19

19:                                               ; preds = %17, %5
  %20 = getelementptr i8, ptr %0, i64 32
  %21 = icmp ugt ptr %7, %20
  br i1 %21, label %22, label %31

22:                                               ; preds = %19
  %23 = load ptr, ptr %20, align 8
  %24 = load i64, ptr %23, align 8
  %25 = add i64 %24, -1
  store i64 %25, ptr %23, align 8
  %26 = icmp eq i64 %24, 1
  br i1 %26, label %27, label %29

27:                                               ; preds = %22
  %28 = getelementptr i8, ptr %23, i64 8
  tail call void @_RINvNvC4core9intrinsic13drop_in_placeC5ValueE(ptr %28)
  br label %29

29:                                               ; preds = %27, %22
  %30 = phi ptr [ %23, %27 ], [ null, %22 ]
  tail call void @__reussir_deallocate(ptr %30, i64 8, i64 32)
  br label %31

31:                                               ; preds = %29, %19
  %32 = getelementptr i8, ptr %0, i64 40
  %33 = icmp ugt ptr %7, %32
  br i1 %33, label %34, label %43

34:                                               ; preds = %31
  %35 = load ptr, ptr %32, align 8
  %36 = load i64, ptr %35, align 8
  %37 = add i64 %36, -1
  store i64 %37, ptr %35, align 8
  %38 = icmp eq i64 %36, 1
  br i1 %38, label %39, label %41

39:                                               ; preds = %34
  %40 = getelementptr i8, ptr %35, i64 8
  tail call void @_RINvNvC4core9intrinsic13drop_in_placeC5ValueE(ptr %40)
  br label %41

41:                                               ; preds = %39, %34
  %42 = phi ptr [ %35, %39 ], [ null, %34 ]
  tail call void @__reussir_deallocate(ptr %42, i64 8, i64 32)
  br label %43

43:                                               ; preds = %41, %31
  %44 = getelementptr i8, ptr %0, i64 48
  %45 = icmp ugt ptr %7, %44
  br i1 %45, label %46, label %55

46:                                               ; preds = %43
  %47 = load ptr, ptr %44, align 8
  %48 = load i64, ptr %47, align 8
  %49 = add i64 %48, -1
  store i64 %49, ptr %47, align 8
  %50 = icmp eq i64 %48, 1
  br i1 %50, label %51, label %53

51:                                               ; preds = %46
  %52 = getelementptr i8, ptr %47, i64 8
  tail call void @_RINvNvC4core9intrinsic13drop_in_placeC5ValueE(ptr %52)
  br label %53

53:                                               ; preds = %51, %46
  %54 = phi ptr [ %47, %51 ], [ null, %46 ]
  tail call void @__reussir_deallocate(ptr %54, i64 8, i64 32)
  br label %55

55:                                               ; preds = %53, %43
  tail call void @__reussir_deallocate(ptr nonnull %0, i64 8, i64 56)
  br label %56

56:                                               ; preds = %55, %1
  ret void
}

; Function Attrs: mustprogress norecurse nounwind willreturn
define internal noalias noundef ptr @"_RNvNvC12hoascbv_tests1_8$closure8evaluate"(ptr captures(none) %0) #2 {
  %2 = getelementptr i8, ptr %0, i64 24
  %3 = load ptr, ptr %2, align 8, !invariant.group !3
  %4 = getelementptr i8, ptr %0, i64 32
  %5 = load ptr, ptr %4, align 8, !invariant.group !3
  %6 = getelementptr i8, ptr %0, i64 40
  %7 = load ptr, ptr %6, align 8, !invariant.group !3
  %8 = tail call align 8 dereferenceable_or_null(56) ptr @__reussir_allocate(i64 8, i64 56)
  store i64 1, ptr %8, align 8
  %9 = getelementptr i8, ptr %8, i64 8
  store ptr @"_RNvNvC12hoascbv_tests0_8$closure6vtable", ptr %9, align 8, !invariant.group !3
  %10 = getelementptr i8, ptr %8, i64 16
  %11 = getelementptr i8, ptr %8, i64 24
  %12 = ptrtoint ptr %11 to i64
  store ptr %3, ptr %11, align 8, !invariant.group !3
  %13 = add nuw i64 %12, 8
  %14 = inttoptr i64 %13 to ptr
  store ptr %5, ptr %14, align 8, !invariant.group !3
  %15 = add nuw i64 %12, 16
  %16 = inttoptr i64 %15 to ptr
  store ptr %7, ptr %16, align 8, !invariant.group !3
  %17 = add nuw i64 %12, 24
  %18 = inttoptr i64 %17 to ptr
  store ptr %18, ptr %10, align 8
  %19 = tail call align 8 dereferenceable_or_null(32) ptr @__reussir_allocate(i64 8, i64 32)
  store i64 1, ptr %19, align 8
  %20 = getelementptr i8, ptr %19, i64 8
  store i64 2, ptr %20, align 8
  %.repack4 = getelementptr i8, ptr %19, i64 16
  store i64 3, ptr %.repack4, align 8
  %.repack4.repack6 = getelementptr i8, ptr %19, i64 24
  store ptr %8, ptr %.repack4.repack6, align 8
  %21 = load i64, ptr %0, align 8
  %22 = add i64 %21, -1
  store i64 %22, ptr %0, align 8
  %23 = icmp eq i64 %21, 1
  br i1 %23, label %24, label %25

24:                                               ; preds = %1
  tail call void @__reussir_deallocate(ptr nonnull %0, i64 8, i64 48)
  br label %25

25:                                               ; preds = %24, %1
  ret ptr %19
}

; Function Attrs: mustprogress norecurse nounwind willreturn
define internal noundef ptr @"_RNvNvC12hoascbv_tests1_8$closure5clone"(ptr %0) #2 {
  %2 = tail call align 8 dereferenceable_or_null(48) ptr @__reussir_allocate(i64 8, i64 48)
  store i64 1, ptr %2, align 8
  %3 = getelementptr i8, ptr %2, i64 8
  %4 = getelementptr i8, ptr %0, i64 8
  %5 = getelementptr i8, ptr %0, i64 16
  %6 = load ptr, ptr %5, align 8
  %7 = ptrtoint ptr %4 to i64
  %8 = ptrtoint ptr %3 to i64
  %9 = ptrtoint ptr %6 to i64
  %10 = sub nuw nsw i64 %9, %7
  %11 = add nuw nsw i64 %7, 8
  %12 = inttoptr i64 %11 to ptr
  %13 = add nuw nsw i64 %8, 8
  %14 = inttoptr i64 %13 to ptr
  tail call void @llvm.memcpy.inline.p0.p0.i64(ptr nonnull align 8 %14, ptr nonnull align 1 %12, i64 32, i1 false)
  %15 = load ptr, ptr %4, align 8, !invariant.group !3
  store ptr %15, ptr %3, align 8, !invariant.group !3
  %16 = getelementptr inbounds i8, ptr %3, i64 %10
  %17 = getelementptr i8, ptr %2, i64 16
  store ptr %16, ptr %17, align 8
  %18 = getelementptr i8, ptr %0, i64 24
  %19 = icmp ugt ptr %6, %18
  br i1 %19, label %20, label %26

20:                                               ; preds = %1
  %21 = getelementptr i8, ptr %2, i64 24
  %22 = load ptr, ptr %21, align 8, !invariant.group !3
  %23 = load i64, ptr %22, align 8
  %24 = add i64 %23, 1
  store i64 %24, ptr %22, align 8
  %25 = icmp ne i64 %23, 0
  tail call void @llvm.assume(i1 %25)
  br label %26

26:                                               ; preds = %20, %1
  %27 = getelementptr i8, ptr %0, i64 32
  %28 = icmp ugt ptr %6, %27
  br i1 %28, label %29, label %35

29:                                               ; preds = %26
  %30 = getelementptr i8, ptr %2, i64 32
  %31 = load ptr, ptr %30, align 8, !invariant.group !3
  %32 = load i64, ptr %31, align 8
  %33 = add i64 %32, 1
  store i64 %33, ptr %31, align 8
  %34 = icmp ne i64 %32, 0
  tail call void @llvm.assume(i1 %34)
  br label %35

35:                                               ; preds = %29, %26
  %36 = getelementptr i8, ptr %0, i64 40
  %37 = icmp ugt ptr %6, %36
  br i1 %37, label %38, label %44

38:                                               ; preds = %35
  %39 = getelementptr i8, ptr %2, i64 40
  %40 = load ptr, ptr %39, align 8, !invariant.group !3
  %41 = load i64, ptr %40, align 8
  %42 = add i64 %41, 1
  store i64 %42, ptr %40, align 8
  %43 = icmp ne i64 %41, 0
  tail call void @llvm.assume(i1 %43)
  br label %44

44:                                               ; preds = %38, %35
  ret ptr %2
}

define internal void @"_RNvNvC12hoascbv_tests1_8$closure4drop"(ptr captures(address) %0) {
  %2 = load i64, ptr %0, align 8
  %3 = add i64 %2, -1
  store i64 %3, ptr %0, align 8
  %4 = icmp eq i64 %2, 1
  br i1 %4, label %5, label %44

5:                                                ; preds = %1
  %6 = getelementptr i8, ptr %0, i64 16
  %7 = load ptr, ptr %6, align 8
  %8 = getelementptr i8, ptr %0, i64 24
  %9 = icmp ugt ptr %7, %8
  br i1 %9, label %10, label %19

10:                                               ; preds = %5
  %11 = load ptr, ptr %8, align 8
  %12 = load i64, ptr %11, align 8
  %13 = add i64 %12, -1
  store i64 %13, ptr %11, align 8
  %14 = icmp eq i64 %12, 1
  br i1 %14, label %15, label %17

15:                                               ; preds = %10
  %16 = getelementptr i8, ptr %11, i64 8
  tail call void @_RINvNvC4core9intrinsic13drop_in_placeC5ValueE(ptr %16)
  br label %17

17:                                               ; preds = %15, %10
  %18 = phi ptr [ %11, %15 ], [ null, %10 ]
  tail call void @__reussir_deallocate(ptr %18, i64 8, i64 32)
  br label %19

19:                                               ; preds = %17, %5
  %20 = getelementptr i8, ptr %0, i64 32
  %21 = icmp ugt ptr %7, %20
  br i1 %21, label %22, label %31

22:                                               ; preds = %19
  %23 = load ptr, ptr %20, align 8
  %24 = load i64, ptr %23, align 8
  %25 = add i64 %24, -1
  store i64 %25, ptr %23, align 8
  %26 = icmp eq i64 %24, 1
  br i1 %26, label %27, label %29

27:                                               ; preds = %22
  %28 = getelementptr i8, ptr %23, i64 8
  tail call void @_RINvNvC4core9intrinsic13drop_in_placeC5ValueE(ptr %28)
  br label %29

29:                                               ; preds = %27, %22
  %30 = phi ptr [ %23, %27 ], [ null, %22 ]
  tail call void @__reussir_deallocate(ptr %30, i64 8, i64 32)
  br label %31

31:                                               ; preds = %29, %19
  %32 = getelementptr i8, ptr %0, i64 40
  %33 = icmp ugt ptr %7, %32
  br i1 %33, label %34, label %43

34:                                               ; preds = %31
  %35 = load ptr, ptr %32, align 8
  %36 = load i64, ptr %35, align 8
  %37 = add i64 %36, -1
  store i64 %37, ptr %35, align 8
  %38 = icmp eq i64 %36, 1
  br i1 %38, label %39, label %41

39:                                               ; preds = %34
  %40 = getelementptr i8, ptr %35, i64 8
  tail call void @_RINvNvC4core9intrinsic13drop_in_placeC5ValueE(ptr %40)
  br label %41

41:                                               ; preds = %39, %34
  %42 = phi ptr [ %35, %39 ], [ null, %34 ]
  tail call void @__reussir_deallocate(ptr %42, i64 8, i64 32)
  br label %43

43:                                               ; preds = %41, %31
  tail call void @__reussir_deallocate(ptr nonnull %0, i64 8, i64 48)
  br label %44

44:                                               ; preds = %43, %1
  ret void
}

; Function Attrs: mustprogress norecurse nounwind willreturn
define internal noalias noundef ptr @"_RNvNvC12hoascbv_tests2_8$closure8evaluate"(ptr captures(none) %0) #2 {
  %2 = getelementptr i8, ptr %0, i64 24
  %3 = load ptr, ptr %2, align 8, !invariant.group !3
  %4 = getelementptr i8, ptr %0, i64 32
  %5 = load ptr, ptr %4, align 8, !invariant.group !3
  %6 = tail call align 8 dereferenceable_or_null(48) ptr @__reussir_allocate(i64 8, i64 48)
  store i64 1, ptr %6, align 8
  %7 = getelementptr i8, ptr %6, i64 8
  store ptr @"_RNvNvC12hoascbv_tests1_8$closure6vtable", ptr %7, align 8, !invariant.group !3
  %8 = getelementptr i8, ptr %6, i64 16
  %9 = getelementptr i8, ptr %6, i64 24
  %10 = ptrtoint ptr %9 to i64
  store ptr %3, ptr %9, align 8, !invariant.group !3
  %11 = add nuw i64 %10, 8
  %12 = inttoptr i64 %11 to ptr
  store ptr %5, ptr %12, align 8, !invariant.group !3
  %13 = add nuw i64 %10, 16
  %14 = inttoptr i64 %13 to ptr
  store ptr %14, ptr %8, align 8
  %15 = tail call align 8 dereferenceable_or_null(32) ptr @__reussir_allocate(i64 8, i64 32)
  store i64 1, ptr %15, align 8
  %16 = getelementptr i8, ptr %15, i64 8
  store i64 2, ptr %16, align 8
  %.repack4 = getelementptr i8, ptr %15, i64 16
  store i64 2, ptr %.repack4, align 8
  %.repack4.repack6 = getelementptr i8, ptr %15, i64 24
  store ptr %6, ptr %.repack4.repack6, align 8
  %17 = load i64, ptr %0, align 8
  %18 = add i64 %17, -1
  store i64 %18, ptr %0, align 8
  %19 = icmp eq i64 %17, 1
  br i1 %19, label %20, label %21

20:                                               ; preds = %1
  tail call void @__reussir_deallocate(ptr nonnull %0, i64 8, i64 40)
  br label %21

21:                                               ; preds = %20, %1
  ret ptr %15
}

; Function Attrs: mustprogress norecurse nounwind willreturn
define internal noundef ptr @"_RNvNvC12hoascbv_tests2_8$closure5clone"(ptr %0) #2 {
  %2 = tail call align 8 dereferenceable_or_null(40) ptr @__reussir_allocate(i64 8, i64 40)
  store i64 1, ptr %2, align 8
  %3 = getelementptr i8, ptr %2, i64 8
  %4 = getelementptr i8, ptr %0, i64 8
  %5 = getelementptr i8, ptr %0, i64 16
  %6 = load ptr, ptr %5, align 8
  %7 = ptrtoint ptr %4 to i64
  %8 = ptrtoint ptr %3 to i64
  %9 = ptrtoint ptr %6 to i64
  %10 = sub nuw nsw i64 %9, %7
  %11 = add nuw nsw i64 %7, 8
  %12 = inttoptr i64 %11 to ptr
  %13 = add nuw nsw i64 %8, 8
  %14 = inttoptr i64 %13 to ptr
  tail call void @llvm.memcpy.inline.p0.p0.i64(ptr nonnull align 8 %14, ptr nonnull align 1 %12, i64 24, i1 false)
  %15 = load ptr, ptr %4, align 8, !invariant.group !3
  store ptr %15, ptr %3, align 8, !invariant.group !3
  %16 = getelementptr inbounds i8, ptr %3, i64 %10
  %17 = getelementptr i8, ptr %2, i64 16
  store ptr %16, ptr %17, align 8
  %18 = getelementptr i8, ptr %0, i64 24
  %19 = icmp ugt ptr %6, %18
  br i1 %19, label %20, label %26

20:                                               ; preds = %1
  %21 = getelementptr i8, ptr %2, i64 24
  %22 = load ptr, ptr %21, align 8, !invariant.group !3
  %23 = load i64, ptr %22, align 8
  %24 = add i64 %23, 1
  store i64 %24, ptr %22, align 8
  %25 = icmp ne i64 %23, 0
  tail call void @llvm.assume(i1 %25)
  br label %26

26:                                               ; preds = %20, %1
  %27 = getelementptr i8, ptr %0, i64 32
  %28 = icmp ugt ptr %6, %27
  br i1 %28, label %29, label %35

29:                                               ; preds = %26
  %30 = getelementptr i8, ptr %2, i64 32
  %31 = load ptr, ptr %30, align 8, !invariant.group !3
  %32 = load i64, ptr %31, align 8
  %33 = add i64 %32, 1
  store i64 %33, ptr %31, align 8
  %34 = icmp ne i64 %32, 0
  tail call void @llvm.assume(i1 %34)
  br label %35

35:                                               ; preds = %29, %26
  ret ptr %2
}

define internal void @"_RNvNvC12hoascbv_tests2_8$closure4drop"(ptr captures(address) %0) {
  %2 = load i64, ptr %0, align 8
  %3 = add i64 %2, -1
  store i64 %3, ptr %0, align 8
  %4 = icmp eq i64 %2, 1
  br i1 %4, label %5, label %32

5:                                                ; preds = %1
  %6 = getelementptr i8, ptr %0, i64 16
  %7 = load ptr, ptr %6, align 8
  %8 = getelementptr i8, ptr %0, i64 24
  %9 = icmp ugt ptr %7, %8
  br i1 %9, label %10, label %19

10:                                               ; preds = %5
  %11 = load ptr, ptr %8, align 8
  %12 = load i64, ptr %11, align 8
  %13 = add i64 %12, -1
  store i64 %13, ptr %11, align 8
  %14 = icmp eq i64 %12, 1
  br i1 %14, label %15, label %17

15:                                               ; preds = %10
  %16 = getelementptr i8, ptr %11, i64 8
  tail call void @_RINvNvC4core9intrinsic13drop_in_placeC5ValueE(ptr %16)
  br label %17

17:                                               ; preds = %15, %10
  %18 = phi ptr [ %11, %15 ], [ null, %10 ]
  tail call void @__reussir_deallocate(ptr %18, i64 8, i64 32)
  br label %19

19:                                               ; preds = %17, %5
  %20 = getelementptr i8, ptr %0, i64 32
  %21 = icmp ugt ptr %7, %20
  br i1 %21, label %22, label %31

22:                                               ; preds = %19
  %23 = load ptr, ptr %20, align 8
  %24 = load i64, ptr %23, align 8
  %25 = add i64 %24, -1
  store i64 %25, ptr %23, align 8
  %26 = icmp eq i64 %24, 1
  br i1 %26, label %27, label %29

27:                                               ; preds = %22
  %28 = getelementptr i8, ptr %23, i64 8
  tail call void @_RINvNvC4core9intrinsic13drop_in_placeC5ValueE(ptr %28)
  br label %29

29:                                               ; preds = %27, %22
  %30 = phi ptr [ %23, %27 ], [ null, %22 ]
  tail call void @__reussir_deallocate(ptr %30, i64 8, i64 32)
  br label %31

31:                                               ; preds = %29, %19
  tail call void @__reussir_deallocate(ptr nonnull %0, i64 8, i64 40)
  br label %32

32:                                               ; preds = %31, %1
  ret void
}

; Function Attrs: mustprogress norecurse nounwind willreturn
define internal noalias noundef ptr @"_RNvNvC12hoascbv_tests3_8$closure8evaluate"(ptr captures(none) %0) #2 {
  %2 = getelementptr i8, ptr %0, i64 24
  %3 = load ptr, ptr %2, align 8, !invariant.group !3
  %4 = tail call align 8 dereferenceable_or_null(40) ptr @__reussir_allocate(i64 8, i64 40)
  store i64 1, ptr %4, align 8
  %5 = getelementptr i8, ptr %4, i64 8
  store ptr @"_RNvNvC12hoascbv_tests2_8$closure6vtable", ptr %5, align 8, !invariant.group !3
  %6 = getelementptr i8, ptr %4, i64 16
  %7 = getelementptr i8, ptr %4, i64 24
  %8 = ptrtoint ptr %7 to i64
  store ptr %3, ptr %7, align 8, !invariant.group !3
  %9 = add nuw i64 %8, 8
  %10 = inttoptr i64 %9 to ptr
  store ptr %10, ptr %6, align 8
  %11 = tail call align 8 dereferenceable_or_null(32) ptr @__reussir_allocate(i64 8, i64 32)
  store i64 1, ptr %11, align 8
  %12 = getelementptr i8, ptr %11, i64 8
  store i64 2, ptr %12, align 8
  %.repack4 = getelementptr i8, ptr %11, i64 16
  store i64 1, ptr %.repack4, align 8
  %.repack4.repack6 = getelementptr i8, ptr %11, i64 24
  store ptr %4, ptr %.repack4.repack6, align 8
  %13 = load i64, ptr %0, align 8
  %14 = add i64 %13, -1
  store i64 %14, ptr %0, align 8
  %15 = icmp eq i64 %13, 1
  br i1 %15, label %16, label %17

16:                                               ; preds = %1
  tail call void @__reussir_deallocate(ptr nonnull %0, i64 8, i64 32)
  br label %17

17:                                               ; preds = %16, %1
  ret ptr %11
}

; Function Attrs: mustprogress norecurse nounwind willreturn
define internal noundef ptr @"_RNvNvC12hoascbv_tests3_8$closure5clone"(ptr %0) #2 {
  %2 = tail call align 8 dereferenceable_or_null(32) ptr @__reussir_allocate(i64 8, i64 32)
  store i64 1, ptr %2, align 8
  %3 = getelementptr i8, ptr %2, i64 8
  %4 = getelementptr i8, ptr %0, i64 8
  %5 = getelementptr i8, ptr %0, i64 16
  %6 = load ptr, ptr %5, align 8
  %7 = ptrtoint ptr %4 to i64
  %8 = ptrtoint ptr %3 to i64
  %9 = ptrtoint ptr %6 to i64
  %10 = sub nuw nsw i64 %9, %7
  %11 = add nuw nsw i64 %7, 8
  %12 = inttoptr i64 %11 to ptr
  %13 = add nuw nsw i64 %8, 8
  %14 = inttoptr i64 %13 to ptr
  tail call void @llvm.memcpy.inline.p0.p0.i64(ptr nonnull align 8 %14, ptr nonnull align 1 %12, i64 16, i1 false)
  %15 = load ptr, ptr %4, align 8, !invariant.group !3
  store ptr %15, ptr %3, align 8, !invariant.group !3
  %16 = getelementptr inbounds i8, ptr %3, i64 %10
  %17 = getelementptr i8, ptr %2, i64 16
  store ptr %16, ptr %17, align 8
  %18 = getelementptr i8, ptr %0, i64 24
  %19 = icmp ugt ptr %6, %18
  br i1 %19, label %20, label %26

20:                                               ; preds = %1
  %21 = getelementptr i8, ptr %2, i64 24
  %22 = load ptr, ptr %21, align 8, !invariant.group !3
  %23 = load i64, ptr %22, align 8
  %24 = add i64 %23, 1
  store i64 %24, ptr %22, align 8
  %25 = icmp ne i64 %23, 0
  tail call void @llvm.assume(i1 %25)
  br label %26

26:                                               ; preds = %20, %1
  ret ptr %2
}

define internal void @"_RNvNvC12hoascbv_tests3_8$closure4drop"(ptr captures(address) %0) {
  %2 = load i64, ptr %0, align 8
  %3 = add i64 %2, -1
  store i64 %3, ptr %0, align 8
  %4 = icmp eq i64 %2, 1
  br i1 %4, label %5, label %20

5:                                                ; preds = %1
  %6 = getelementptr i8, ptr %0, i64 16
  %7 = load ptr, ptr %6, align 8
  %8 = getelementptr i8, ptr %0, i64 24
  %9 = icmp ugt ptr %7, %8
  br i1 %9, label %10, label %19

10:                                               ; preds = %5
  %11 = load ptr, ptr %8, align 8
  %12 = load i64, ptr %11, align 8
  %13 = add i64 %12, -1
  store i64 %13, ptr %11, align 8
  %14 = icmp eq i64 %12, 1
  br i1 %14, label %15, label %17

15:                                               ; preds = %10
  %16 = getelementptr i8, ptr %11, i64 8
  tail call void @_RINvNvC4core9intrinsic13drop_in_placeC5ValueE(ptr %16)
  br label %17

17:                                               ; preds = %15, %10
  %18 = phi ptr [ %11, %15 ], [ null, %10 ]
  tail call void @__reussir_deallocate(ptr %18, i64 8, i64 32)
  br label %19

19:                                               ; preds = %17, %5
  tail call void @__reussir_deallocate(ptr nonnull %0, i64 8, i64 32)
  br label %20

20:                                               ; preds = %19, %1
  ret void
}

define internal ptr @"_RNvNvC12hoascbv_tests4_8$closure8evaluate"(ptr captures(none) %0) {
  %2 = getelementptr i8, ptr %0, i64 24
  %3 = load ptr, ptr %2, align 8, !invariant.group !3
  %4 = getelementptr i8, ptr %0, i64 32
  %5 = load ptr, ptr %4, align 8, !invariant.group !3
  %6 = load i64, ptr %3, align 8
  %7 = add i64 %6, 1
  store i64 %7, ptr %3, align 8
  %8 = icmp ne i64 %6, 0
  tail call void @llvm.assume(i1 %8)
  %9 = tail call ptr @_RC2ap(ptr nonnull %3, ptr %5)
  %10 = tail call ptr @_RC2ap(ptr nonnull %3, ptr %9)
  %11 = load i64, ptr %0, align 8
  %12 = add i64 %11, -1
  store i64 %12, ptr %0, align 8
  %13 = icmp eq i64 %11, 1
  br i1 %13, label %14, label %15

14:                                               ; preds = %1
  tail call void @__reussir_deallocate(ptr nonnull %0, i64 8, i64 40)
  br label %15

15:                                               ; preds = %14, %1
  ret ptr %10
}

; Function Attrs: mustprogress norecurse nounwind willreturn
define internal noundef ptr @"_RNvNvC12hoascbv_tests4_8$closure5clone"(ptr %0) #2 {
  %2 = tail call align 8 dereferenceable_or_null(40) ptr @__reussir_allocate(i64 8, i64 40)
  store i64 1, ptr %2, align 8
  %3 = getelementptr i8, ptr %2, i64 8
  %4 = getelementptr i8, ptr %0, i64 8
  %5 = getelementptr i8, ptr %0, i64 16
  %6 = load ptr, ptr %5, align 8
  %7 = ptrtoint ptr %4 to i64
  %8 = ptrtoint ptr %3 to i64
  %9 = ptrtoint ptr %6 to i64
  %10 = sub nuw nsw i64 %9, %7
  %11 = add nuw nsw i64 %7, 8
  %12 = inttoptr i64 %11 to ptr
  %13 = add nuw nsw i64 %8, 8
  %14 = inttoptr i64 %13 to ptr
  tail call void @llvm.memcpy.inline.p0.p0.i64(ptr nonnull align 8 %14, ptr nonnull align 1 %12, i64 24, i1 false)
  %15 = load ptr, ptr %4, align 8, !invariant.group !3
  store ptr %15, ptr %3, align 8, !invariant.group !3
  %16 = getelementptr inbounds i8, ptr %3, i64 %10
  %17 = getelementptr i8, ptr %2, i64 16
  store ptr %16, ptr %17, align 8
  %18 = getelementptr i8, ptr %0, i64 24
  %19 = icmp ugt ptr %6, %18
  br i1 %19, label %20, label %26

20:                                               ; preds = %1
  %21 = getelementptr i8, ptr %2, i64 24
  %22 = load ptr, ptr %21, align 8, !invariant.group !3
  %23 = load i64, ptr %22, align 8
  %24 = add i64 %23, 1
  store i64 %24, ptr %22, align 8
  %25 = icmp ne i64 %23, 0
  tail call void @llvm.assume(i1 %25)
  br label %26

26:                                               ; preds = %20, %1
  %27 = getelementptr i8, ptr %0, i64 32
  %28 = icmp ugt ptr %6, %27
  br i1 %28, label %29, label %35

29:                                               ; preds = %26
  %30 = getelementptr i8, ptr %2, i64 32
  %31 = load ptr, ptr %30, align 8, !invariant.group !3
  %32 = load i64, ptr %31, align 8
  %33 = add i64 %32, 1
  store i64 %33, ptr %31, align 8
  %34 = icmp ne i64 %32, 0
  tail call void @llvm.assume(i1 %34)
  br label %35

35:                                               ; preds = %29, %26
  ret ptr %2
}

define internal void @"_RNvNvC12hoascbv_tests4_8$closure4drop"(ptr captures(address) %0) {
  %2 = load i64, ptr %0, align 8
  %3 = add i64 %2, -1
  store i64 %3, ptr %0, align 8
  %4 = icmp eq i64 %2, 1
  br i1 %4, label %5, label %32

5:                                                ; preds = %1
  %6 = getelementptr i8, ptr %0, i64 16
  %7 = load ptr, ptr %6, align 8
  %8 = getelementptr i8, ptr %0, i64 24
  %9 = icmp ugt ptr %7, %8
  br i1 %9, label %10, label %19

10:                                               ; preds = %5
  %11 = load ptr, ptr %8, align 8
  %12 = load i64, ptr %11, align 8
  %13 = add i64 %12, -1
  store i64 %13, ptr %11, align 8
  %14 = icmp eq i64 %12, 1
  br i1 %14, label %15, label %17

15:                                               ; preds = %10
  %16 = getelementptr i8, ptr %11, i64 8
  tail call void @_RINvNvC4core9intrinsic13drop_in_placeC5ValueE(ptr %16)
  br label %17

17:                                               ; preds = %15, %10
  %18 = phi ptr [ %11, %15 ], [ null, %10 ]
  tail call void @__reussir_deallocate(ptr %18, i64 8, i64 32)
  br label %19

19:                                               ; preds = %17, %5
  %20 = getelementptr i8, ptr %0, i64 32
  %21 = icmp ugt ptr %7, %20
  br i1 %21, label %22, label %31

22:                                               ; preds = %19
  %23 = load ptr, ptr %20, align 8
  %24 = load i64, ptr %23, align 8
  %25 = add i64 %24, -1
  store i64 %25, ptr %23, align 8
  %26 = icmp eq i64 %24, 1
  br i1 %26, label %27, label %29

27:                                               ; preds = %22
  %28 = getelementptr i8, ptr %23, i64 8
  tail call void @_RINvNvC4core9intrinsic13drop_in_placeC5ValueE(ptr %28)
  br label %29

29:                                               ; preds = %27, %22
  %30 = phi ptr [ %23, %27 ], [ null, %22 ]
  tail call void @__reussir_deallocate(ptr %30, i64 8, i64 32)
  br label %31

31:                                               ; preds = %29, %19
  tail call void @__reussir_deallocate(ptr nonnull %0, i64 8, i64 40)
  br label %32

32:                                               ; preds = %31, %1
  ret void
}

; Function Attrs: mustprogress norecurse nounwind willreturn
define internal noalias noundef ptr @"_RNvNvC12hoascbv_tests5_8$closure8evaluate"(ptr captures(none) %0) #2 {
  %2 = getelementptr i8, ptr %0, i64 24
  %3 = load ptr, ptr %2, align 8, !invariant.group !3
  %4 = tail call align 8 dereferenceable_or_null(40) ptr @__reussir_allocate(i64 8, i64 40)
  store i64 1, ptr %4, align 8
  %5 = getelementptr i8, ptr %4, i64 8
  store ptr @"_RNvNvC12hoascbv_tests4_8$closure6vtable", ptr %5, align 8, !invariant.group !3
  %6 = getelementptr i8, ptr %4, i64 16
  %7 = getelementptr i8, ptr %4, i64 24
  %8 = ptrtoint ptr %7 to i64
  store ptr %3, ptr %7, align 8, !invariant.group !3
  %9 = add nuw i64 %8, 8
  %10 = inttoptr i64 %9 to ptr
  store ptr %10, ptr %6, align 8
  %11 = tail call align 8 dereferenceable_or_null(32) ptr @__reussir_allocate(i64 8, i64 32)
  store i64 1, ptr %11, align 8
  %12 = getelementptr i8, ptr %11, i64 8
  store i64 2, ptr %12, align 8
  %.repack4 = getelementptr i8, ptr %11, i64 16
  store i64 1, ptr %.repack4, align 8
  %.repack4.repack6 = getelementptr i8, ptr %11, i64 24
  store ptr %4, ptr %.repack4.repack6, align 8
  %13 = load i64, ptr %0, align 8
  %14 = add i64 %13, -1
  store i64 %14, ptr %0, align 8
  %15 = icmp eq i64 %13, 1
  br i1 %15, label %16, label %17

16:                                               ; preds = %1
  tail call void @__reussir_deallocate(ptr nonnull %0, i64 8, i64 32)
  br label %17

17:                                               ; preds = %16, %1
  ret ptr %11
}

; Function Attrs: mustprogress norecurse nounwind willreturn
define internal noundef ptr @"_RNvNvC12hoascbv_tests5_8$closure5clone"(ptr %0) #2 {
  %2 = tail call align 8 dereferenceable_or_null(32) ptr @__reussir_allocate(i64 8, i64 32)
  store i64 1, ptr %2, align 8
  %3 = getelementptr i8, ptr %2, i64 8
  %4 = getelementptr i8, ptr %0, i64 8
  %5 = getelementptr i8, ptr %0, i64 16
  %6 = load ptr, ptr %5, align 8
  %7 = ptrtoint ptr %4 to i64
  %8 = ptrtoint ptr %3 to i64
  %9 = ptrtoint ptr %6 to i64
  %10 = sub nuw nsw i64 %9, %7
  %11 = add nuw nsw i64 %7, 8
  %12 = inttoptr i64 %11 to ptr
  %13 = add nuw nsw i64 %8, 8
  %14 = inttoptr i64 %13 to ptr
  tail call void @llvm.memcpy.inline.p0.p0.i64(ptr nonnull align 8 %14, ptr nonnull align 1 %12, i64 16, i1 false)
  %15 = load ptr, ptr %4, align 8, !invariant.group !3
  store ptr %15, ptr %3, align 8, !invariant.group !3
  %16 = getelementptr inbounds i8, ptr %3, i64 %10
  %17 = getelementptr i8, ptr %2, i64 16
  store ptr %16, ptr %17, align 8
  %18 = getelementptr i8, ptr %0, i64 24
  %19 = icmp ugt ptr %6, %18
  br i1 %19, label %20, label %26

20:                                               ; preds = %1
  %21 = getelementptr i8, ptr %2, i64 24
  %22 = load ptr, ptr %21, align 8, !invariant.group !3
  %23 = load i64, ptr %22, align 8
  %24 = add i64 %23, 1
  store i64 %24, ptr %22, align 8
  %25 = icmp ne i64 %23, 0
  tail call void @llvm.assume(i1 %25)
  br label %26

26:                                               ; preds = %20, %1
  ret ptr %2
}

define internal void @"_RNvNvC12hoascbv_tests5_8$closure4drop"(ptr captures(address) %0) {
  %2 = load i64, ptr %0, align 8
  %3 = add i64 %2, -1
  store i64 %3, ptr %0, align 8
  %4 = icmp eq i64 %2, 1
  br i1 %4, label %5, label %20

5:                                                ; preds = %1
  %6 = getelementptr i8, ptr %0, i64 16
  %7 = load ptr, ptr %6, align 8
  %8 = getelementptr i8, ptr %0, i64 24
  %9 = icmp ugt ptr %7, %8
  br i1 %9, label %10, label %19

10:                                               ; preds = %5
  %11 = load ptr, ptr %8, align 8
  %12 = load i64, ptr %11, align 8
  %13 = add i64 %12, -1
  store i64 %13, ptr %11, align 8
  %14 = icmp eq i64 %12, 1
  br i1 %14, label %15, label %17

15:                                               ; preds = %10
  %16 = getelementptr i8, ptr %11, i64 8
  tail call void @_RINvNvC4core9intrinsic13drop_in_placeC5ValueE(ptr %16)
  br label %17

17:                                               ; preds = %15, %10
  %18 = phi ptr [ %11, %15 ], [ null, %10 ]
  tail call void @__reussir_deallocate(ptr %18, i64 8, i64 32)
  br label %19

19:                                               ; preds = %17, %5
  tail call void @__reussir_deallocate(ptr nonnull %0, i64 8, i64 32)
  br label %20

20:                                               ; preds = %19, %1
  ret void
}

define internal ptr @"_RNvNvC12hoascbv_tests6_8$closure8evaluate"(ptr captures(none) %0) {
  %2 = getelementptr i8, ptr %0, i64 24
  %3 = load ptr, ptr %2, align 8, !invariant.group !3
  %4 = getelementptr i8, ptr %0, i64 32
  %5 = load ptr, ptr %4, align 8, !invariant.group !3
  %6 = load i64, ptr %3, align 8
  %7 = icmp ne i64 %6, 0
  tail call void @llvm.assume(i1 %7)
  %8 = icmp ne i64 %6, -1
  tail call void @llvm.assume(i1 %8)
  %9 = icmp ne i64 %6, -2
  tail call void @llvm.assume(i1 %9)
  %10 = add i64 %6, 4
  store i64 %10, ptr %3, align 8
  %11 = icmp ne i64 %6, -3
  tail call void @llvm.assume(i1 %11)
  %12 = tail call ptr @_RC2ap(ptr nonnull %3, ptr %5)
  %13 = tail call ptr @_RC2ap(ptr nonnull %3, ptr %12)
  %14 = tail call ptr @_RC2ap(ptr nonnull %3, ptr %13)
  %15 = tail call ptr @_RC2ap(ptr nonnull %3, ptr %14)
  %16 = tail call ptr @_RC2ap(ptr nonnull %3, ptr %15)
  %17 = load i64, ptr %0, align 8
  %18 = add i64 %17, -1
  store i64 %18, ptr %0, align 8
  %19 = icmp eq i64 %17, 1
  br i1 %19, label %20, label %21

20:                                               ; preds = %1
  tail call void @__reussir_deallocate(ptr nonnull %0, i64 8, i64 40)
  br label %21

21:                                               ; preds = %20, %1
  ret ptr %16
}

; Function Attrs: mustprogress norecurse nounwind willreturn
define internal noundef ptr @"_RNvNvC12hoascbv_tests6_8$closure5clone"(ptr %0) #2 {
  %2 = tail call align 8 dereferenceable_or_null(40) ptr @__reussir_allocate(i64 8, i64 40)
  store i64 1, ptr %2, align 8
  %3 = getelementptr i8, ptr %2, i64 8
  %4 = getelementptr i8, ptr %0, i64 8
  %5 = getelementptr i8, ptr %0, i64 16
  %6 = load ptr, ptr %5, align 8
  %7 = ptrtoint ptr %4 to i64
  %8 = ptrtoint ptr %3 to i64
  %9 = ptrtoint ptr %6 to i64
  %10 = sub nuw nsw i64 %9, %7
  %11 = add nuw nsw i64 %7, 8
  %12 = inttoptr i64 %11 to ptr
  %13 = add nuw nsw i64 %8, 8
  %14 = inttoptr i64 %13 to ptr
  tail call void @llvm.memcpy.inline.p0.p0.i64(ptr nonnull align 8 %14, ptr nonnull align 1 %12, i64 24, i1 false)
  %15 = load ptr, ptr %4, align 8, !invariant.group !3
  store ptr %15, ptr %3, align 8, !invariant.group !3
  %16 = getelementptr inbounds i8, ptr %3, i64 %10
  %17 = getelementptr i8, ptr %2, i64 16
  store ptr %16, ptr %17, align 8
  %18 = getelementptr i8, ptr %0, i64 24
  %19 = icmp ugt ptr %6, %18
  br i1 %19, label %20, label %26

20:                                               ; preds = %1
  %21 = getelementptr i8, ptr %2, i64 24
  %22 = load ptr, ptr %21, align 8, !invariant.group !3
  %23 = load i64, ptr %22, align 8
  %24 = add i64 %23, 1
  store i64 %24, ptr %22, align 8
  %25 = icmp ne i64 %23, 0
  tail call void @llvm.assume(i1 %25)
  br label %26

26:                                               ; preds = %20, %1
  %27 = getelementptr i8, ptr %0, i64 32
  %28 = icmp ugt ptr %6, %27
  br i1 %28, label %29, label %35

29:                                               ; preds = %26
  %30 = getelementptr i8, ptr %2, i64 32
  %31 = load ptr, ptr %30, align 8, !invariant.group !3
  %32 = load i64, ptr %31, align 8
  %33 = add i64 %32, 1
  store i64 %33, ptr %31, align 8
  %34 = icmp ne i64 %32, 0
  tail call void @llvm.assume(i1 %34)
  br label %35

35:                                               ; preds = %29, %26
  ret ptr %2
}

define internal void @"_RNvNvC12hoascbv_tests6_8$closure4drop"(ptr captures(address) %0) {
  %2 = load i64, ptr %0, align 8
  %3 = add i64 %2, -1
  store i64 %3, ptr %0, align 8
  %4 = icmp eq i64 %2, 1
  br i1 %4, label %5, label %32

5:                                                ; preds = %1
  %6 = getelementptr i8, ptr %0, i64 16
  %7 = load ptr, ptr %6, align 8
  %8 = getelementptr i8, ptr %0, i64 24
  %9 = icmp ugt ptr %7, %8
  br i1 %9, label %10, label %19

10:                                               ; preds = %5
  %11 = load ptr, ptr %8, align 8
  %12 = load i64, ptr %11, align 8
  %13 = add i64 %12, -1
  store i64 %13, ptr %11, align 8
  %14 = icmp eq i64 %12, 1
  br i1 %14, label %15, label %17

15:                                               ; preds = %10
  %16 = getelementptr i8, ptr %11, i64 8
  tail call void @_RINvNvC4core9intrinsic13drop_in_placeC5ValueE(ptr %16)
  br label %17

17:                                               ; preds = %15, %10
  %18 = phi ptr [ %11, %15 ], [ null, %10 ]
  tail call void @__reussir_deallocate(ptr %18, i64 8, i64 32)
  br label %19

19:                                               ; preds = %17, %5
  %20 = getelementptr i8, ptr %0, i64 32
  %21 = icmp ugt ptr %7, %20
  br i1 %21, label %22, label %31

22:                                               ; preds = %19
  %23 = load ptr, ptr %20, align 8
  %24 = load i64, ptr %23, align 8
  %25 = add i64 %24, -1
  store i64 %25, ptr %23, align 8
  %26 = icmp eq i64 %24, 1
  br i1 %26, label %27, label %29

27:                                               ; preds = %22
  %28 = getelementptr i8, ptr %23, i64 8
  tail call void @_RINvNvC4core9intrinsic13drop_in_placeC5ValueE(ptr %28)
  br label %29

29:                                               ; preds = %27, %22
  %30 = phi ptr [ %23, %27 ], [ null, %22 ]
  tail call void @__reussir_deallocate(ptr %30, i64 8, i64 32)
  br label %31

31:                                               ; preds = %29, %19
  tail call void @__reussir_deallocate(ptr nonnull %0, i64 8, i64 40)
  br label %32

32:                                               ; preds = %31, %1
  ret void
}

; Function Attrs: mustprogress norecurse nounwind willreturn
define internal noalias noundef ptr @"_RNvNvC12hoascbv_tests7_8$closure8evaluate"(ptr captures(none) %0) #2 {
  %2 = getelementptr i8, ptr %0, i64 24
  %3 = load ptr, ptr %2, align 8, !invariant.group !3
  %4 = tail call align 8 dereferenceable_or_null(40) ptr @__reussir_allocate(i64 8, i64 40)
  store i64 1, ptr %4, align 8
  %5 = getelementptr i8, ptr %4, i64 8
  store ptr @"_RNvNvC12hoascbv_tests6_8$closure6vtable", ptr %5, align 8, !invariant.group !3
  %6 = getelementptr i8, ptr %4, i64 16
  %7 = getelementptr i8, ptr %4, i64 24
  %8 = ptrtoint ptr %7 to i64
  store ptr %3, ptr %7, align 8, !invariant.group !3
  %9 = add nuw i64 %8, 8
  %10 = inttoptr i64 %9 to ptr
  store ptr %10, ptr %6, align 8
  %11 = tail call align 8 dereferenceable_or_null(32) ptr @__reussir_allocate(i64 8, i64 32)
  store i64 1, ptr %11, align 8
  %12 = getelementptr i8, ptr %11, i64 8
  store i64 2, ptr %12, align 8
  %.repack4 = getelementptr i8, ptr %11, i64 16
  store i64 1, ptr %.repack4, align 8
  %.repack4.repack6 = getelementptr i8, ptr %11, i64 24
  store ptr %4, ptr %.repack4.repack6, align 8
  %13 = load i64, ptr %0, align 8
  %14 = add i64 %13, -1
  store i64 %14, ptr %0, align 8
  %15 = icmp eq i64 %13, 1
  br i1 %15, label %16, label %17

16:                                               ; preds = %1
  tail call void @__reussir_deallocate(ptr nonnull %0, i64 8, i64 32)
  br label %17

17:                                               ; preds = %16, %1
  ret ptr %11
}

; Function Attrs: mustprogress norecurse nounwind willreturn
define internal noundef ptr @"_RNvNvC12hoascbv_tests7_8$closure5clone"(ptr %0) #2 {
  %2 = tail call align 8 dereferenceable_or_null(32) ptr @__reussir_allocate(i64 8, i64 32)
  store i64 1, ptr %2, align 8
  %3 = getelementptr i8, ptr %2, i64 8
  %4 = getelementptr i8, ptr %0, i64 8
  %5 = getelementptr i8, ptr %0, i64 16
  %6 = load ptr, ptr %5, align 8
  %7 = ptrtoint ptr %4 to i64
  %8 = ptrtoint ptr %3 to i64
  %9 = ptrtoint ptr %6 to i64
  %10 = sub nuw nsw i64 %9, %7
  %11 = add nuw nsw i64 %7, 8
  %12 = inttoptr i64 %11 to ptr
  %13 = add nuw nsw i64 %8, 8
  %14 = inttoptr i64 %13 to ptr
  tail call void @llvm.memcpy.inline.p0.p0.i64(ptr nonnull align 8 %14, ptr nonnull align 1 %12, i64 16, i1 false)
  %15 = load ptr, ptr %4, align 8, !invariant.group !3
  store ptr %15, ptr %3, align 8, !invariant.group !3
  %16 = getelementptr inbounds i8, ptr %3, i64 %10
  %17 = getelementptr i8, ptr %2, i64 16
  store ptr %16, ptr %17, align 8
  %18 = getelementptr i8, ptr %0, i64 24
  %19 = icmp ugt ptr %6, %18
  br i1 %19, label %20, label %26

20:                                               ; preds = %1
  %21 = getelementptr i8, ptr %2, i64 24
  %22 = load ptr, ptr %21, align 8, !invariant.group !3
  %23 = load i64, ptr %22, align 8
  %24 = add i64 %23, 1
  store i64 %24, ptr %22, align 8
  %25 = icmp ne i64 %23, 0
  tail call void @llvm.assume(i1 %25)
  br label %26

26:                                               ; preds = %20, %1
  ret ptr %2
}

define internal void @"_RNvNvC12hoascbv_tests7_8$closure4drop"(ptr captures(address) %0) {
  %2 = load i64, ptr %0, align 8
  %3 = add i64 %2, -1
  store i64 %3, ptr %0, align 8
  %4 = icmp eq i64 %2, 1
  br i1 %4, label %5, label %20

5:                                                ; preds = %1
  %6 = getelementptr i8, ptr %0, i64 16
  %7 = load ptr, ptr %6, align 8
  %8 = getelementptr i8, ptr %0, i64 24
  %9 = icmp ugt ptr %7, %8
  br i1 %9, label %10, label %19

10:                                               ; preds = %5
  %11 = load ptr, ptr %8, align 8
  %12 = load i64, ptr %11, align 8
  %13 = add i64 %12, -1
  store i64 %13, ptr %11, align 8
  %14 = icmp eq i64 %12, 1
  br i1 %14, label %15, label %17

15:                                               ; preds = %10
  %16 = getelementptr i8, ptr %11, i64 8
  tail call void @_RINvNvC4core9intrinsic13drop_in_placeC5ValueE(ptr %16)
  br label %17

17:                                               ; preds = %15, %10
  %18 = phi ptr [ %11, %15 ], [ null, %10 ]
  tail call void @__reussir_deallocate(ptr %18, i64 8, i64 32)
  br label %19

19:                                               ; preds = %17, %5
  tail call void @__reussir_deallocate(ptr nonnull %0, i64 8, i64 32)
  br label %20

20:                                               ; preds = %19, %1
  ret void
}

define internal ptr @"_RNvNvC12hoascbv_tests8_8$closure8evaluate"(ptr captures(none) %0) {
  %2 = getelementptr i8, ptr %0, i64 24
  %3 = load ptr, ptr %2, align 8, !invariant.group !3
  %4 = getelementptr i8, ptr %0, i64 32
  %5 = load ptr, ptr %4, align 8, !invariant.group !3
  %6 = getelementptr i8, ptr %0, i64 40
  %7 = load ptr, ptr %6, align 8, !invariant.group !3
  %8 = getelementptr i8, ptr %0, i64 48
  %9 = load ptr, ptr %8, align 8, !invariant.group !3
  %10 = tail call ptr @_RC2ap(ptr %5, ptr %7)
  %11 = tail call ptr @_RC2ap(ptr %3, ptr %10)
  %12 = tail call ptr @_RC2ap(ptr %11, ptr %9)
  %13 = load i64, ptr %0, align 8
  %14 = add i64 %13, -1
  store i64 %14, ptr %0, align 8
  %15 = icmp eq i64 %13, 1
  br i1 %15, label %16, label %17

16:                                               ; preds = %1
  tail call void @__reussir_deallocate(ptr nonnull %0, i64 8, i64 56)
  br label %17

17:                                               ; preds = %16, %1
  ret ptr %12
}

; Function Attrs: mustprogress norecurse nounwind willreturn
define internal noundef ptr @"_RNvNvC12hoascbv_tests8_8$closure5clone"(ptr %0) #2 {
  %2 = tail call align 8 dereferenceable_or_null(56) ptr @__reussir_allocate(i64 8, i64 56)
  store i64 1, ptr %2, align 8
  %3 = getelementptr i8, ptr %2, i64 8
  %4 = getelementptr i8, ptr %0, i64 8
  %5 = getelementptr i8, ptr %0, i64 16
  %6 = load ptr, ptr %5, align 8
  %7 = ptrtoint ptr %4 to i64
  %8 = ptrtoint ptr %3 to i64
  %9 = ptrtoint ptr %6 to i64
  %10 = sub nuw nsw i64 %9, %7
  %11 = add nsw i64 %10, -8
  %12 = add nuw nsw i64 %7, 8
  %13 = inttoptr i64 %12 to ptr
  %14 = add nuw nsw i64 %8, 8
  %15 = inttoptr i64 %14 to ptr
  tail call void @llvm.memcpy.p0.p0.i64(ptr nonnull align 8 %15, ptr nonnull align 1 %13, i64 %11, i1 false)
  %16 = load ptr, ptr %4, align 8, !invariant.group !3
  store ptr %16, ptr %3, align 8, !invariant.group !3
  %17 = getelementptr inbounds i8, ptr %3, i64 %10
  %18 = getelementptr i8, ptr %2, i64 16
  store ptr %17, ptr %18, align 8
  %19 = getelementptr i8, ptr %0, i64 24
  %20 = icmp ugt ptr %6, %19
  br i1 %20, label %21, label %27

21:                                               ; preds = %1
  %22 = getelementptr i8, ptr %2, i64 24
  %23 = load ptr, ptr %22, align 8, !invariant.group !3
  %24 = load i64, ptr %23, align 8
  %25 = add i64 %24, 1
  store i64 %25, ptr %23, align 8
  %26 = icmp ne i64 %24, 0
  tail call void @llvm.assume(i1 %26)
  br label %27

27:                                               ; preds = %21, %1
  %28 = getelementptr i8, ptr %0, i64 32
  %29 = icmp ugt ptr %6, %28
  br i1 %29, label %30, label %36

30:                                               ; preds = %27
  %31 = getelementptr i8, ptr %2, i64 32
  %32 = load ptr, ptr %31, align 8, !invariant.group !3
  %33 = load i64, ptr %32, align 8
  %34 = add i64 %33, 1
  store i64 %34, ptr %32, align 8
  %35 = icmp ne i64 %33, 0
  tail call void @llvm.assume(i1 %35)
  br label %36

36:                                               ; preds = %30, %27
  %37 = getelementptr i8, ptr %0, i64 40
  %38 = icmp ugt ptr %6, %37
  br i1 %38, label %39, label %45

39:                                               ; preds = %36
  %40 = getelementptr i8, ptr %2, i64 40
  %41 = load ptr, ptr %40, align 8, !invariant.group !3
  %42 = load i64, ptr %41, align 8
  %43 = add i64 %42, 1
  store i64 %43, ptr %41, align 8
  %44 = icmp ne i64 %42, 0
  tail call void @llvm.assume(i1 %44)
  br label %45

45:                                               ; preds = %39, %36
  %46 = getelementptr i8, ptr %0, i64 48
  %47 = icmp ugt ptr %6, %46
  br i1 %47, label %48, label %54

48:                                               ; preds = %45
  %49 = getelementptr i8, ptr %2, i64 48
  %50 = load ptr, ptr %49, align 8, !invariant.group !3
  %51 = load i64, ptr %50, align 8
  %52 = add i64 %51, 1
  store i64 %52, ptr %50, align 8
  %53 = icmp ne i64 %51, 0
  tail call void @llvm.assume(i1 %53)
  br label %54

54:                                               ; preds = %48, %45
  ret ptr %2
}

define internal void @"_RNvNvC12hoascbv_tests8_8$closure4drop"(ptr captures(address) %0) {
  %2 = load i64, ptr %0, align 8
  %3 = add i64 %2, -1
  store i64 %3, ptr %0, align 8
  %4 = icmp eq i64 %2, 1
  br i1 %4, label %5, label %56

5:                                                ; preds = %1
  %6 = getelementptr i8, ptr %0, i64 16
  %7 = load ptr, ptr %6, align 8
  %8 = getelementptr i8, ptr %0, i64 24
  %9 = icmp ugt ptr %7, %8
  br i1 %9, label %10, label %19

10:                                               ; preds = %5
  %11 = load ptr, ptr %8, align 8
  %12 = load i64, ptr %11, align 8
  %13 = add i64 %12, -1
  store i64 %13, ptr %11, align 8
  %14 = icmp eq i64 %12, 1
  br i1 %14, label %15, label %17

15:                                               ; preds = %10
  %16 = getelementptr i8, ptr %11, i64 8
  tail call void @_RINvNvC4core9intrinsic13drop_in_placeC5ValueE(ptr %16)
  br label %17

17:                                               ; preds = %15, %10
  %18 = phi ptr [ %11, %15 ], [ null, %10 ]
  tail call void @__reussir_deallocate(ptr %18, i64 8, i64 32)
  br label %19

19:                                               ; preds = %17, %5
  %20 = getelementptr i8, ptr %0, i64 32
  %21 = icmp ugt ptr %7, %20
  br i1 %21, label %22, label %31

22:                                               ; preds = %19
  %23 = load ptr, ptr %20, align 8
  %24 = load i64, ptr %23, align 8
  %25 = add i64 %24, -1
  store i64 %25, ptr %23, align 8
  %26 = icmp eq i64 %24, 1
  br i1 %26, label %27, label %29

27:                                               ; preds = %22
  %28 = getelementptr i8, ptr %23, i64 8
  tail call void @_RINvNvC4core9intrinsic13drop_in_placeC5ValueE(ptr %28)
  br label %29

29:                                               ; preds = %27, %22
  %30 = phi ptr [ %23, %27 ], [ null, %22 ]
  tail call void @__reussir_deallocate(ptr %30, i64 8, i64 32)
  br label %31

31:                                               ; preds = %29, %19
  %32 = getelementptr i8, ptr %0, i64 40
  %33 = icmp ugt ptr %7, %32
  br i1 %33, label %34, label %43

34:                                               ; preds = %31
  %35 = load ptr, ptr %32, align 8
  %36 = load i64, ptr %35, align 8
  %37 = add i64 %36, -1
  store i64 %37, ptr %35, align 8
  %38 = icmp eq i64 %36, 1
  br i1 %38, label %39, label %41

39:                                               ; preds = %34
  %40 = getelementptr i8, ptr %35, i64 8
  tail call void @_RINvNvC4core9intrinsic13drop_in_placeC5ValueE(ptr %40)
  br label %41

41:                                               ; preds = %39, %34
  %42 = phi ptr [ %35, %39 ], [ null, %34 ]
  tail call void @__reussir_deallocate(ptr %42, i64 8, i64 32)
  br label %43

43:                                               ; preds = %41, %31
  %44 = getelementptr i8, ptr %0, i64 48
  %45 = icmp ugt ptr %7, %44
  br i1 %45, label %46, label %55

46:                                               ; preds = %43
  %47 = load ptr, ptr %44, align 8
  %48 = load i64, ptr %47, align 8
  %49 = add i64 %48, -1
  store i64 %49, ptr %47, align 8
  %50 = icmp eq i64 %48, 1
  br i1 %50, label %51, label %53

51:                                               ; preds = %46
  %52 = getelementptr i8, ptr %47, i64 8
  tail call void @_RINvNvC4core9intrinsic13drop_in_placeC5ValueE(ptr %52)
  br label %53

53:                                               ; preds = %51, %46
  %54 = phi ptr [ %47, %51 ], [ null, %46 ]
  tail call void @__reussir_deallocate(ptr %54, i64 8, i64 32)
  br label %55

55:                                               ; preds = %53, %43
  tail call void @__reussir_deallocate(ptr nonnull %0, i64 8, i64 56)
  br label %56

56:                                               ; preds = %55, %1
  ret void
}

; Function Attrs: mustprogress norecurse nounwind willreturn
define internal noalias noundef ptr @"_RNvNvC12hoascbv_tests9_8$closure8evaluate"(ptr captures(none) %0) #2 {
  %2 = getelementptr i8, ptr %0, i64 24
  %3 = load ptr, ptr %2, align 8, !invariant.group !3
  %4 = getelementptr i8, ptr %0, i64 32
  %5 = load ptr, ptr %4, align 8, !invariant.group !3
  %6 = getelementptr i8, ptr %0, i64 40
  %7 = load ptr, ptr %6, align 8, !invariant.group !3
  %8 = tail call align 8 dereferenceable_or_null(56) ptr @__reussir_allocate(i64 8, i64 56)
  store i64 1, ptr %8, align 8
  %9 = getelementptr i8, ptr %8, i64 8
  store ptr @"_RNvNvC12hoascbv_tests8_8$closure6vtable", ptr %9, align 8, !invariant.group !3
  %10 = getelementptr i8, ptr %8, i64 16
  %11 = getelementptr i8, ptr %8, i64 24
  %12 = ptrtoint ptr %11 to i64
  store ptr %3, ptr %11, align 8, !invariant.group !3
  %13 = add nuw i64 %12, 8
  %14 = inttoptr i64 %13 to ptr
  store ptr %5, ptr %14, align 8, !invariant.group !3
  %15 = add nuw i64 %12, 16
  %16 = inttoptr i64 %15 to ptr
  store ptr %7, ptr %16, align 8, !invariant.group !3
  %17 = add nuw i64 %12, 24
  %18 = inttoptr i64 %17 to ptr
  store ptr %18, ptr %10, align 8
  %19 = tail call align 8 dereferenceable_or_null(32) ptr @__reussir_allocate(i64 8, i64 32)
  store i64 1, ptr %19, align 8
  %20 = getelementptr i8, ptr %19, i64 8
  store i64 2, ptr %20, align 8
  %.repack4 = getelementptr i8, ptr %19, i64 16
  store i64 3, ptr %.repack4, align 8
  %.repack4.repack6 = getelementptr i8, ptr %19, i64 24
  store ptr %8, ptr %.repack4.repack6, align 8
  %21 = load i64, ptr %0, align 8
  %22 = add i64 %21, -1
  store i64 %22, ptr %0, align 8
  %23 = icmp eq i64 %21, 1
  br i1 %23, label %24, label %25

24:                                               ; preds = %1
  tail call void @__reussir_deallocate(ptr nonnull %0, i64 8, i64 48)
  br label %25

25:                                               ; preds = %24, %1
  ret ptr %19
}

; Function Attrs: mustprogress norecurse nounwind willreturn
define internal noundef ptr @"_RNvNvC12hoascbv_tests9_8$closure5clone"(ptr %0) #2 {
  %2 = tail call align 8 dereferenceable_or_null(48) ptr @__reussir_allocate(i64 8, i64 48)
  store i64 1, ptr %2, align 8
  %3 = getelementptr i8, ptr %2, i64 8
  %4 = getelementptr i8, ptr %0, i64 8
  %5 = getelementptr i8, ptr %0, i64 16
  %6 = load ptr, ptr %5, align 8
  %7 = ptrtoint ptr %4 to i64
  %8 = ptrtoint ptr %3 to i64
  %9 = ptrtoint ptr %6 to i64
  %10 = sub nuw nsw i64 %9, %7
  %11 = add nuw nsw i64 %7, 8
  %12 = inttoptr i64 %11 to ptr
  %13 = add nuw nsw i64 %8, 8
  %14 = inttoptr i64 %13 to ptr
  tail call void @llvm.memcpy.inline.p0.p0.i64(ptr nonnull align 8 %14, ptr nonnull align 1 %12, i64 32, i1 false)
  %15 = load ptr, ptr %4, align 8, !invariant.group !3
  store ptr %15, ptr %3, align 8, !invariant.group !3
  %16 = getelementptr inbounds i8, ptr %3, i64 %10
  %17 = getelementptr i8, ptr %2, i64 16
  store ptr %16, ptr %17, align 8
  %18 = getelementptr i8, ptr %0, i64 24
  %19 = icmp ugt ptr %6, %18
  br i1 %19, label %20, label %26

20:                                               ; preds = %1
  %21 = getelementptr i8, ptr %2, i64 24
  %22 = load ptr, ptr %21, align 8, !invariant.group !3
  %23 = load i64, ptr %22, align 8
  %24 = add i64 %23, 1
  store i64 %24, ptr %22, align 8
  %25 = icmp ne i64 %23, 0
  tail call void @llvm.assume(i1 %25)
  br label %26

26:                                               ; preds = %20, %1
  %27 = getelementptr i8, ptr %0, i64 32
  %28 = icmp ugt ptr %6, %27
  br i1 %28, label %29, label %35

29:                                               ; preds = %26
  %30 = getelementptr i8, ptr %2, i64 32
  %31 = load ptr, ptr %30, align 8, !invariant.group !3
  %32 = load i64, ptr %31, align 8
  %33 = add i64 %32, 1
  store i64 %33, ptr %31, align 8
  %34 = icmp ne i64 %32, 0
  tail call void @llvm.assume(i1 %34)
  br label %35

35:                                               ; preds = %29, %26
  %36 = getelementptr i8, ptr %0, i64 40
  %37 = icmp ugt ptr %6, %36
  br i1 %37, label %38, label %44

38:                                               ; preds = %35
  %39 = getelementptr i8, ptr %2, i64 40
  %40 = load ptr, ptr %39, align 8, !invariant.group !3
  %41 = load i64, ptr %40, align 8
  %42 = add i64 %41, 1
  store i64 %42, ptr %40, align 8
  %43 = icmp ne i64 %41, 0
  tail call void @llvm.assume(i1 %43)
  br label %44

44:                                               ; preds = %38, %35
  ret ptr %2
}

define internal void @"_RNvNvC12hoascbv_tests9_8$closure4drop"(ptr captures(address) %0) {
  %2 = load i64, ptr %0, align 8
  %3 = add i64 %2, -1
  store i64 %3, ptr %0, align 8
  %4 = icmp eq i64 %2, 1
  br i1 %4, label %5, label %44

5:                                                ; preds = %1
  %6 = getelementptr i8, ptr %0, i64 16
  %7 = load ptr, ptr %6, align 8
  %8 = getelementptr i8, ptr %0, i64 24
  %9 = icmp ugt ptr %7, %8
  br i1 %9, label %10, label %19

10:                                               ; preds = %5
  %11 = load ptr, ptr %8, align 8
  %12 = load i64, ptr %11, align 8
  %13 = add i64 %12, -1
  store i64 %13, ptr %11, align 8
  %14 = icmp eq i64 %12, 1
  br i1 %14, label %15, label %17

15:                                               ; preds = %10
  %16 = getelementptr i8, ptr %11, i64 8
  tail call void @_RINvNvC4core9intrinsic13drop_in_placeC5ValueE(ptr %16)
  br label %17

17:                                               ; preds = %15, %10
  %18 = phi ptr [ %11, %15 ], [ null, %10 ]
  tail call void @__reussir_deallocate(ptr %18, i64 8, i64 32)
  br label %19

19:                                               ; preds = %17, %5
  %20 = getelementptr i8, ptr %0, i64 32
  %21 = icmp ugt ptr %7, %20
  br i1 %21, label %22, label %31

22:                                               ; preds = %19
  %23 = load ptr, ptr %20, align 8
  %24 = load i64, ptr %23, align 8
  %25 = add i64 %24, -1
  store i64 %25, ptr %23, align 8
  %26 = icmp eq i64 %24, 1
  br i1 %26, label %27, label %29

27:                                               ; preds = %22
  %28 = getelementptr i8, ptr %23, i64 8
  tail call void @_RINvNvC4core9intrinsic13drop_in_placeC5ValueE(ptr %28)
  br label %29

29:                                               ; preds = %27, %22
  %30 = phi ptr [ %23, %27 ], [ null, %22 ]
  tail call void @__reussir_deallocate(ptr %30, i64 8, i64 32)
  br label %31

31:                                               ; preds = %29, %19
  %32 = getelementptr i8, ptr %0, i64 40
  %33 = icmp ugt ptr %7, %32
  br i1 %33, label %34, label %43

34:                                               ; preds = %31
  %35 = load ptr, ptr %32, align 8
  %36 = load i64, ptr %35, align 8
  %37 = add i64 %36, -1
  store i64 %37, ptr %35, align 8
  %38 = icmp eq i64 %36, 1
  br i1 %38, label %39, label %41

39:                                               ; preds = %34
  %40 = getelementptr i8, ptr %35, i64 8
  tail call void @_RINvNvC4core9intrinsic13drop_in_placeC5ValueE(ptr %40)
  br label %41

41:                                               ; preds = %39, %34
  %42 = phi ptr [ %35, %39 ], [ null, %34 ]
  tail call void @__reussir_deallocate(ptr %42, i64 8, i64 32)
  br label %43

43:                                               ; preds = %41, %31
  tail call void @__reussir_deallocate(ptr nonnull %0, i64 8, i64 48)
  br label %44

44:                                               ; preds = %43, %1
  ret void
}

; Function Attrs: mustprogress norecurse nounwind willreturn
define internal noalias noundef ptr @"_RNvNvC12hoascbv_testsA_8$closure8evaluate"(ptr captures(none) %0) #2 {
  %2 = getelementptr i8, ptr %0, i64 24
  %3 = load ptr, ptr %2, align 8, !invariant.group !3
  %4 = getelementptr i8, ptr %0, i64 32
  %5 = load ptr, ptr %4, align 8, !invariant.group !3
  %6 = tail call align 8 dereferenceable_or_null(48) ptr @__reussir_allocate(i64 8, i64 48)
  store i64 1, ptr %6, align 8
  %7 = getelementptr i8, ptr %6, i64 8
  store ptr @"_RNvNvC12hoascbv_tests9_8$closure6vtable", ptr %7, align 8, !invariant.group !3
  %8 = getelementptr i8, ptr %6, i64 16
  %9 = getelementptr i8, ptr %6, i64 24
  %10 = ptrtoint ptr %9 to i64
  store ptr %3, ptr %9, align 8, !invariant.group !3
  %11 = add nuw i64 %10, 8
  %12 = inttoptr i64 %11 to ptr
  store ptr %5, ptr %12, align 8, !invariant.group !3
  %13 = add nuw i64 %10, 16
  %14 = inttoptr i64 %13 to ptr
  store ptr %14, ptr %8, align 8
  %15 = tail call align 8 dereferenceable_or_null(32) ptr @__reussir_allocate(i64 8, i64 32)
  store i64 1, ptr %15, align 8
  %16 = getelementptr i8, ptr %15, i64 8
  store i64 2, ptr %16, align 8
  %.repack4 = getelementptr i8, ptr %15, i64 16
  store i64 2, ptr %.repack4, align 8
  %.repack4.repack6 = getelementptr i8, ptr %15, i64 24
  store ptr %6, ptr %.repack4.repack6, align 8
  %17 = load i64, ptr %0, align 8
  %18 = add i64 %17, -1
  store i64 %18, ptr %0, align 8
  %19 = icmp eq i64 %17, 1
  br i1 %19, label %20, label %21

20:                                               ; preds = %1
  tail call void @__reussir_deallocate(ptr nonnull %0, i64 8, i64 40)
  br label %21

21:                                               ; preds = %20, %1
  ret ptr %15
}

; Function Attrs: mustprogress norecurse nounwind willreturn
define internal noundef ptr @"_RNvNvC12hoascbv_testsA_8$closure5clone"(ptr %0) #2 {
  %2 = tail call align 8 dereferenceable_or_null(40) ptr @__reussir_allocate(i64 8, i64 40)
  store i64 1, ptr %2, align 8
  %3 = getelementptr i8, ptr %2, i64 8
  %4 = getelementptr i8, ptr %0, i64 8
  %5 = getelementptr i8, ptr %0, i64 16
  %6 = load ptr, ptr %5, align 8
  %7 = ptrtoint ptr %4 to i64
  %8 = ptrtoint ptr %3 to i64
  %9 = ptrtoint ptr %6 to i64
  %10 = sub nuw nsw i64 %9, %7
  %11 = add nuw nsw i64 %7, 8
  %12 = inttoptr i64 %11 to ptr
  %13 = add nuw nsw i64 %8, 8
  %14 = inttoptr i64 %13 to ptr
  tail call void @llvm.memcpy.inline.p0.p0.i64(ptr nonnull align 8 %14, ptr nonnull align 1 %12, i64 24, i1 false)
  %15 = load ptr, ptr %4, align 8, !invariant.group !3
  store ptr %15, ptr %3, align 8, !invariant.group !3
  %16 = getelementptr inbounds i8, ptr %3, i64 %10
  %17 = getelementptr i8, ptr %2, i64 16
  store ptr %16, ptr %17, align 8
  %18 = getelementptr i8, ptr %0, i64 24
  %19 = icmp ugt ptr %6, %18
  br i1 %19, label %20, label %26

20:                                               ; preds = %1
  %21 = getelementptr i8, ptr %2, i64 24
  %22 = load ptr, ptr %21, align 8, !invariant.group !3
  %23 = load i64, ptr %22, align 8
  %24 = add i64 %23, 1
  store i64 %24, ptr %22, align 8
  %25 = icmp ne i64 %23, 0
  tail call void @llvm.assume(i1 %25)
  br label %26

26:                                               ; preds = %20, %1
  %27 = getelementptr i8, ptr %0, i64 32
  %28 = icmp ugt ptr %6, %27
  br i1 %28, label %29, label %35

29:                                               ; preds = %26
  %30 = getelementptr i8, ptr %2, i64 32
  %31 = load ptr, ptr %30, align 8, !invariant.group !3
  %32 = load i64, ptr %31, align 8
  %33 = add i64 %32, 1
  store i64 %33, ptr %31, align 8
  %34 = icmp ne i64 %32, 0
  tail call void @llvm.assume(i1 %34)
  br label %35

35:                                               ; preds = %29, %26
  ret ptr %2
}

define internal void @"_RNvNvC12hoascbv_testsA_8$closure4drop"(ptr captures(address) %0) {
  %2 = load i64, ptr %0, align 8
  %3 = add i64 %2, -1
  store i64 %3, ptr %0, align 8
  %4 = icmp eq i64 %2, 1
  br i1 %4, label %5, label %32

5:                                                ; preds = %1
  %6 = getelementptr i8, ptr %0, i64 16
  %7 = load ptr, ptr %6, align 8
  %8 = getelementptr i8, ptr %0, i64 24
  %9 = icmp ugt ptr %7, %8
  br i1 %9, label %10, label %19

10:                                               ; preds = %5
  %11 = load ptr, ptr %8, align 8
  %12 = load i64, ptr %11, align 8
  %13 = add i64 %12, -1
  store i64 %13, ptr %11, align 8
  %14 = icmp eq i64 %12, 1
  br i1 %14, label %15, label %17

15:                                               ; preds = %10
  %16 = getelementptr i8, ptr %11, i64 8
  tail call void @_RINvNvC4core9intrinsic13drop_in_placeC5ValueE(ptr %16)
  br label %17

17:                                               ; preds = %15, %10
  %18 = phi ptr [ %11, %15 ], [ null, %10 ]
  tail call void @__reussir_deallocate(ptr %18, i64 8, i64 32)
  br label %19

19:                                               ; preds = %17, %5
  %20 = getelementptr i8, ptr %0, i64 32
  %21 = icmp ugt ptr %7, %20
  br i1 %21, label %22, label %31

22:                                               ; preds = %19
  %23 = load ptr, ptr %20, align 8
  %24 = load i64, ptr %23, align 8
  %25 = add i64 %24, -1
  store i64 %25, ptr %23, align 8
  %26 = icmp eq i64 %24, 1
  br i1 %26, label %27, label %29

27:                                               ; preds = %22
  %28 = getelementptr i8, ptr %23, i64 8
  tail call void @_RINvNvC4core9intrinsic13drop_in_placeC5ValueE(ptr %28)
  br label %29

29:                                               ; preds = %27, %22
  %30 = phi ptr [ %23, %27 ], [ null, %22 ]
  tail call void @__reussir_deallocate(ptr %30, i64 8, i64 32)
  br label %31

31:                                               ; preds = %29, %19
  tail call void @__reussir_deallocate(ptr nonnull %0, i64 8, i64 40)
  br label %32

32:                                               ; preds = %31, %1
  ret void
}

; Function Attrs: mustprogress norecurse nounwind willreturn
define internal noalias noundef ptr @"_RNvNvC12hoascbv_testsB_8$closure8evaluate"(ptr captures(none) %0) #2 {
  %2 = getelementptr i8, ptr %0, i64 24
  %3 = load ptr, ptr %2, align 8, !invariant.group !3
  %4 = tail call align 8 dereferenceable_or_null(40) ptr @__reussir_allocate(i64 8, i64 40)
  store i64 1, ptr %4, align 8
  %5 = getelementptr i8, ptr %4, i64 8
  store ptr @"_RNvNvC12hoascbv_testsA_8$closure6vtable", ptr %5, align 8, !invariant.group !3
  %6 = getelementptr i8, ptr %4, i64 16
  %7 = getelementptr i8, ptr %4, i64 24
  %8 = ptrtoint ptr %7 to i64
  store ptr %3, ptr %7, align 8, !invariant.group !3
  %9 = add nuw i64 %8, 8
  %10 = inttoptr i64 %9 to ptr
  store ptr %10, ptr %6, align 8
  %11 = tail call align 8 dereferenceable_or_null(32) ptr @__reussir_allocate(i64 8, i64 32)
  store i64 1, ptr %11, align 8
  %12 = getelementptr i8, ptr %11, i64 8
  store i64 2, ptr %12, align 8
  %.repack4 = getelementptr i8, ptr %11, i64 16
  store i64 1, ptr %.repack4, align 8
  %.repack4.repack6 = getelementptr i8, ptr %11, i64 24
  store ptr %4, ptr %.repack4.repack6, align 8
  %13 = load i64, ptr %0, align 8
  %14 = add i64 %13, -1
  store i64 %14, ptr %0, align 8
  %15 = icmp eq i64 %13, 1
  br i1 %15, label %16, label %17

16:                                               ; preds = %1
  tail call void @__reussir_deallocate(ptr nonnull %0, i64 8, i64 32)
  br label %17

17:                                               ; preds = %16, %1
  ret ptr %11
}

; Function Attrs: mustprogress norecurse nounwind willreturn
define internal noundef ptr @"_RNvNvC12hoascbv_testsB_8$closure5clone"(ptr %0) #2 {
  %2 = tail call align 8 dereferenceable_or_null(32) ptr @__reussir_allocate(i64 8, i64 32)
  store i64 1, ptr %2, align 8
  %3 = getelementptr i8, ptr %2, i64 8
  %4 = getelementptr i8, ptr %0, i64 8
  %5 = getelementptr i8, ptr %0, i64 16
  %6 = load ptr, ptr %5, align 8
  %7 = ptrtoint ptr %4 to i64
  %8 = ptrtoint ptr %3 to i64
  %9 = ptrtoint ptr %6 to i64
  %10 = sub nuw nsw i64 %9, %7
  %11 = add nuw nsw i64 %7, 8
  %12 = inttoptr i64 %11 to ptr
  %13 = add nuw nsw i64 %8, 8
  %14 = inttoptr i64 %13 to ptr
  tail call void @llvm.memcpy.inline.p0.p0.i64(ptr nonnull align 8 %14, ptr nonnull align 1 %12, i64 16, i1 false)
  %15 = load ptr, ptr %4, align 8, !invariant.group !3
  store ptr %15, ptr %3, align 8, !invariant.group !3
  %16 = getelementptr inbounds i8, ptr %3, i64 %10
  %17 = getelementptr i8, ptr %2, i64 16
  store ptr %16, ptr %17, align 8
  %18 = getelementptr i8, ptr %0, i64 24
  %19 = icmp ugt ptr %6, %18
  br i1 %19, label %20, label %26

20:                                               ; preds = %1
  %21 = getelementptr i8, ptr %2, i64 24
  %22 = load ptr, ptr %21, align 8, !invariant.group !3
  %23 = load i64, ptr %22, align 8
  %24 = add i64 %23, 1
  store i64 %24, ptr %22, align 8
  %25 = icmp ne i64 %23, 0
  tail call void @llvm.assume(i1 %25)
  br label %26

26:                                               ; preds = %20, %1
  ret ptr %2
}

define internal void @"_RNvNvC12hoascbv_testsB_8$closure4drop"(ptr captures(address) %0) {
  %2 = load i64, ptr %0, align 8
  %3 = add i64 %2, -1
  store i64 %3, ptr %0, align 8
  %4 = icmp eq i64 %2, 1
  br i1 %4, label %5, label %20

5:                                                ; preds = %1
  %6 = getelementptr i8, ptr %0, i64 16
  %7 = load ptr, ptr %6, align 8
  %8 = getelementptr i8, ptr %0, i64 24
  %9 = icmp ugt ptr %7, %8
  br i1 %9, label %10, label %19

10:                                               ; preds = %5
  %11 = load ptr, ptr %8, align 8
  %12 = load i64, ptr %11, align 8
  %13 = add i64 %12, -1
  store i64 %13, ptr %11, align 8
  %14 = icmp eq i64 %12, 1
  br i1 %14, label %15, label %17

15:                                               ; preds = %10
  %16 = getelementptr i8, ptr %11, i64 8
  tail call void @_RINvNvC4core9intrinsic13drop_in_placeC5ValueE(ptr %16)
  br label %17

17:                                               ; preds = %15, %10
  %18 = phi ptr [ %11, %15 ], [ null, %10 ]
  tail call void @__reussir_deallocate(ptr %18, i64 8, i64 32)
  br label %19

19:                                               ; preds = %17, %5
  tail call void @__reussir_deallocate(ptr nonnull %0, i64 8, i64 32)
  br label %20

20:                                               ; preds = %19, %1
  ret void
}

define internal ptr @"_RNvNvC12hoascbv_testsC_8$closure8evaluate"(ptr captures(none) %0) {
  %2 = getelementptr i8, ptr %0, i64 24
  %3 = load ptr, ptr %2, align 8, !invariant.group !3
  %4 = getelementptr i8, ptr %0, i64 32
  %5 = load ptr, ptr %4, align 8, !invariant.group !3
  %6 = load i64, ptr %3, align 8
  %7 = add i64 %6, 1
  store i64 %7, ptr %3, align 8
  %8 = icmp ne i64 %6, 0
  tail call void @llvm.assume(i1 %8)
  %9 = tail call ptr @_RC2ap(ptr nonnull %3, ptr %5)
  %10 = tail call ptr @_RC2ap(ptr nonnull %3, ptr %9)
  %11 = load i64, ptr %0, align 8
  %12 = add i64 %11, -1
  store i64 %12, ptr %0, align 8
  %13 = icmp eq i64 %11, 1
  br i1 %13, label %14, label %15

14:                                               ; preds = %1
  tail call void @__reussir_deallocate(ptr nonnull %0, i64 8, i64 40)
  br label %15

15:                                               ; preds = %14, %1
  ret ptr %10
}

; Function Attrs: mustprogress norecurse nounwind willreturn
define internal noundef ptr @"_RNvNvC12hoascbv_testsC_8$closure5clone"(ptr %0) #2 {
  %2 = tail call align 8 dereferenceable_or_null(40) ptr @__reussir_allocate(i64 8, i64 40)
  store i64 1, ptr %2, align 8
  %3 = getelementptr i8, ptr %2, i64 8
  %4 = getelementptr i8, ptr %0, i64 8
  %5 = getelementptr i8, ptr %0, i64 16
  %6 = load ptr, ptr %5, align 8
  %7 = ptrtoint ptr %4 to i64
  %8 = ptrtoint ptr %3 to i64
  %9 = ptrtoint ptr %6 to i64
  %10 = sub nuw nsw i64 %9, %7
  %11 = add nuw nsw i64 %7, 8
  %12 = inttoptr i64 %11 to ptr
  %13 = add nuw nsw i64 %8, 8
  %14 = inttoptr i64 %13 to ptr
  tail call void @llvm.memcpy.inline.p0.p0.i64(ptr nonnull align 8 %14, ptr nonnull align 1 %12, i64 24, i1 false)
  %15 = load ptr, ptr %4, align 8, !invariant.group !3
  store ptr %15, ptr %3, align 8, !invariant.group !3
  %16 = getelementptr inbounds i8, ptr %3, i64 %10
  %17 = getelementptr i8, ptr %2, i64 16
  store ptr %16, ptr %17, align 8
  %18 = getelementptr i8, ptr %0, i64 24
  %19 = icmp ugt ptr %6, %18
  br i1 %19, label %20, label %26

20:                                               ; preds = %1
  %21 = getelementptr i8, ptr %2, i64 24
  %22 = load ptr, ptr %21, align 8, !invariant.group !3
  %23 = load i64, ptr %22, align 8
  %24 = add i64 %23, 1
  store i64 %24, ptr %22, align 8
  %25 = icmp ne i64 %23, 0
  tail call void @llvm.assume(i1 %25)
  br label %26

26:                                               ; preds = %20, %1
  %27 = getelementptr i8, ptr %0, i64 32
  %28 = icmp ugt ptr %6, %27
  br i1 %28, label %29, label %35

29:                                               ; preds = %26
  %30 = getelementptr i8, ptr %2, i64 32
  %31 = load ptr, ptr %30, align 8, !invariant.group !3
  %32 = load i64, ptr %31, align 8
  %33 = add i64 %32, 1
  store i64 %33, ptr %31, align 8
  %34 = icmp ne i64 %32, 0
  tail call void @llvm.assume(i1 %34)
  br label %35

35:                                               ; preds = %29, %26
  ret ptr %2
}

define internal void @"_RNvNvC12hoascbv_testsC_8$closure4drop"(ptr captures(address) %0) {
  %2 = load i64, ptr %0, align 8
  %3 = add i64 %2, -1
  store i64 %3, ptr %0, align 8
  %4 = icmp eq i64 %2, 1
  br i1 %4, label %5, label %32

5:                                                ; preds = %1
  %6 = getelementptr i8, ptr %0, i64 16
  %7 = load ptr, ptr %6, align 8
  %8 = getelementptr i8, ptr %0, i64 24
  %9 = icmp ugt ptr %7, %8
  br i1 %9, label %10, label %19

10:                                               ; preds = %5
  %11 = load ptr, ptr %8, align 8
  %12 = load i64, ptr %11, align 8
  %13 = add i64 %12, -1
  store i64 %13, ptr %11, align 8
  %14 = icmp eq i64 %12, 1
  br i1 %14, label %15, label %17

15:                                               ; preds = %10
  %16 = getelementptr i8, ptr %11, i64 8
  tail call void @_RINvNvC4core9intrinsic13drop_in_placeC5ValueE(ptr %16)
  br label %17

17:                                               ; preds = %15, %10
  %18 = phi ptr [ %11, %15 ], [ null, %10 ]
  tail call void @__reussir_deallocate(ptr %18, i64 8, i64 32)
  br label %19

19:                                               ; preds = %17, %5
  %20 = getelementptr i8, ptr %0, i64 32
  %21 = icmp ugt ptr %7, %20
  br i1 %21, label %22, label %31

22:                                               ; preds = %19
  %23 = load ptr, ptr %20, align 8
  %24 = load i64, ptr %23, align 8
  %25 = add i64 %24, -1
  store i64 %25, ptr %23, align 8
  %26 = icmp eq i64 %24, 1
  br i1 %26, label %27, label %29

27:                                               ; preds = %22
  %28 = getelementptr i8, ptr %23, i64 8
  tail call void @_RINvNvC4core9intrinsic13drop_in_placeC5ValueE(ptr %28)
  br label %29

29:                                               ; preds = %27, %22
  %30 = phi ptr [ %23, %27 ], [ null, %22 ]
  tail call void @__reussir_deallocate(ptr %30, i64 8, i64 32)
  br label %31

31:                                               ; preds = %29, %19
  tail call void @__reussir_deallocate(ptr nonnull %0, i64 8, i64 40)
  br label %32

32:                                               ; preds = %31, %1
  ret void
}

; Function Attrs: mustprogress norecurse nounwind willreturn
define internal noalias noundef ptr @"_RNvNvC12hoascbv_testsD_8$closure8evaluate"(ptr captures(none) %0) #2 {
  %2 = getelementptr i8, ptr %0, i64 24
  %3 = load ptr, ptr %2, align 8, !invariant.group !3
  %4 = tail call align 8 dereferenceable_or_null(40) ptr @__reussir_allocate(i64 8, i64 40)
  store i64 1, ptr %4, align 8
  %5 = getelementptr i8, ptr %4, i64 8
  store ptr @"_RNvNvC12hoascbv_testsC_8$closure6vtable", ptr %5, align 8, !invariant.group !3
  %6 = getelementptr i8, ptr %4, i64 16
  %7 = getelementptr i8, ptr %4, i64 24
  %8 = ptrtoint ptr %7 to i64
  store ptr %3, ptr %7, align 8, !invariant.group !3
  %9 = add nuw i64 %8, 8
  %10 = inttoptr i64 %9 to ptr
  store ptr %10, ptr %6, align 8
  %11 = tail call align 8 dereferenceable_or_null(32) ptr @__reussir_allocate(i64 8, i64 32)
  store i64 1, ptr %11, align 8
  %12 = getelementptr i8, ptr %11, i64 8
  store i64 2, ptr %12, align 8
  %.repack4 = getelementptr i8, ptr %11, i64 16
  store i64 1, ptr %.repack4, align 8
  %.repack4.repack6 = getelementptr i8, ptr %11, i64 24
  store ptr %4, ptr %.repack4.repack6, align 8
  %13 = load i64, ptr %0, align 8
  %14 = add i64 %13, -1
  store i64 %14, ptr %0, align 8
  %15 = icmp eq i64 %13, 1
  br i1 %15, label %16, label %17

16:                                               ; preds = %1
  tail call void @__reussir_deallocate(ptr nonnull %0, i64 8, i64 32)
  br label %17

17:                                               ; preds = %16, %1
  ret ptr %11
}

; Function Attrs: mustprogress norecurse nounwind willreturn
define internal noundef ptr @"_RNvNvC12hoascbv_testsD_8$closure5clone"(ptr %0) #2 {
  %2 = tail call align 8 dereferenceable_or_null(32) ptr @__reussir_allocate(i64 8, i64 32)
  store i64 1, ptr %2, align 8
  %3 = getelementptr i8, ptr %2, i64 8
  %4 = getelementptr i8, ptr %0, i64 8
  %5 = getelementptr i8, ptr %0, i64 16
  %6 = load ptr, ptr %5, align 8
  %7 = ptrtoint ptr %4 to i64
  %8 = ptrtoint ptr %3 to i64
  %9 = ptrtoint ptr %6 to i64
  %10 = sub nuw nsw i64 %9, %7
  %11 = add nuw nsw i64 %7, 8
  %12 = inttoptr i64 %11 to ptr
  %13 = add nuw nsw i64 %8, 8
  %14 = inttoptr i64 %13 to ptr
  tail call void @llvm.memcpy.inline.p0.p0.i64(ptr nonnull align 8 %14, ptr nonnull align 1 %12, i64 16, i1 false)
  %15 = load ptr, ptr %4, align 8, !invariant.group !3
  store ptr %15, ptr %3, align 8, !invariant.group !3
  %16 = getelementptr inbounds i8, ptr %3, i64 %10
  %17 = getelementptr i8, ptr %2, i64 16
  store ptr %16, ptr %17, align 8
  %18 = getelementptr i8, ptr %0, i64 24
  %19 = icmp ugt ptr %6, %18
  br i1 %19, label %20, label %26

20:                                               ; preds = %1
  %21 = getelementptr i8, ptr %2, i64 24
  %22 = load ptr, ptr %21, align 8, !invariant.group !3
  %23 = load i64, ptr %22, align 8
  %24 = add i64 %23, 1
  store i64 %24, ptr %22, align 8
  %25 = icmp ne i64 %23, 0
  tail call void @llvm.assume(i1 %25)
  br label %26

26:                                               ; preds = %20, %1
  ret ptr %2
}

define internal void @"_RNvNvC12hoascbv_testsD_8$closure4drop"(ptr captures(address) %0) {
  %2 = load i64, ptr %0, align 8
  %3 = add i64 %2, -1
  store i64 %3, ptr %0, align 8
  %4 = icmp eq i64 %2, 1
  br i1 %4, label %5, label %20

5:                                                ; preds = %1
  %6 = getelementptr i8, ptr %0, i64 16
  %7 = load ptr, ptr %6, align 8
  %8 = getelementptr i8, ptr %0, i64 24
  %9 = icmp ugt ptr %7, %8
  br i1 %9, label %10, label %19

10:                                               ; preds = %5
  %11 = load ptr, ptr %8, align 8
  %12 = load i64, ptr %11, align 8
  %13 = add i64 %12, -1
  store i64 %13, ptr %11, align 8
  %14 = icmp eq i64 %12, 1
  br i1 %14, label %15, label %17

15:                                               ; preds = %10
  %16 = getelementptr i8, ptr %11, i64 8
  tail call void @_RINvNvC4core9intrinsic13drop_in_placeC5ValueE(ptr %16)
  br label %17

17:                                               ; preds = %15, %10
  %18 = phi ptr [ %11, %15 ], [ null, %10 ]
  tail call void @__reussir_deallocate(ptr %18, i64 8, i64 32)
  br label %19

19:                                               ; preds = %17, %5
  tail call void @__reussir_deallocate(ptr nonnull %0, i64 8, i64 32)
  br label %20

20:                                               ; preds = %19, %1
  ret void
}

define internal ptr @"_RNvNvC12hoascbv_testsE_8$closure8evaluate"(ptr captures(none) %0) {
  %2 = getelementptr i8, ptr %0, i64 24
  %3 = load ptr, ptr %2, align 8, !invariant.group !3
  %4 = getelementptr i8, ptr %0, i64 32
  %5 = load ptr, ptr %4, align 8, !invariant.group !3
  %6 = getelementptr i8, ptr %0, i64 40
  %7 = load ptr, ptr %6, align 8, !invariant.group !3
  %8 = load i64, ptr %5, align 8
  %9 = add i64 %8, 1
  store i64 %9, ptr %5, align 8
  %10 = icmp ne i64 %8, 0
  tail call void @llvm.assume(i1 %10)
  %11 = tail call ptr @_RC3ap2(ptr %3, ptr nonnull %5, ptr %7)
  %12 = tail call ptr @_RC2ap(ptr nonnull %5, ptr %11)
  %13 = load i64, ptr %0, align 8
  %14 = add i64 %13, -1
  store i64 %14, ptr %0, align 8
  %15 = icmp eq i64 %13, 1
  br i1 %15, label %16, label %17

16:                                               ; preds = %1
  tail call void @__reussir_deallocate(ptr nonnull %0, i64 8, i64 48)
  br label %17

17:                                               ; preds = %16, %1
  ret ptr %12
}

; Function Attrs: mustprogress norecurse nounwind willreturn
define internal noundef ptr @"_RNvNvC12hoascbv_testsE_8$closure5clone"(ptr %0) #2 {
  %2 = tail call align 8 dereferenceable_or_null(48) ptr @__reussir_allocate(i64 8, i64 48)
  store i64 1, ptr %2, align 8
  %3 = getelementptr i8, ptr %2, i64 8
  %4 = getelementptr i8, ptr %0, i64 8
  %5 = getelementptr i8, ptr %0, i64 16
  %6 = load ptr, ptr %5, align 8
  %7 = ptrtoint ptr %4 to i64
  %8 = ptrtoint ptr %3 to i64
  %9 = ptrtoint ptr %6 to i64
  %10 = sub nuw nsw i64 %9, %7
  %11 = add nuw nsw i64 %7, 8
  %12 = inttoptr i64 %11 to ptr
  %13 = add nuw nsw i64 %8, 8
  %14 = inttoptr i64 %13 to ptr
  tail call void @llvm.memcpy.inline.p0.p0.i64(ptr nonnull align 8 %14, ptr nonnull align 1 %12, i64 32, i1 false)
  %15 = load ptr, ptr %4, align 8, !invariant.group !3
  store ptr %15, ptr %3, align 8, !invariant.group !3
  %16 = getelementptr inbounds i8, ptr %3, i64 %10
  %17 = getelementptr i8, ptr %2, i64 16
  store ptr %16, ptr %17, align 8
  %18 = getelementptr i8, ptr %0, i64 24
  %19 = icmp ugt ptr %6, %18
  br i1 %19, label %20, label %26

20:                                               ; preds = %1
  %21 = getelementptr i8, ptr %2, i64 24
  %22 = load ptr, ptr %21, align 8, !invariant.group !3
  %23 = load i64, ptr %22, align 8
  %24 = add i64 %23, 1
  store i64 %24, ptr %22, align 8
  %25 = icmp ne i64 %23, 0
  tail call void @llvm.assume(i1 %25)
  br label %26

26:                                               ; preds = %20, %1
  %27 = getelementptr i8, ptr %0, i64 32
  %28 = icmp ugt ptr %6, %27
  br i1 %28, label %29, label %35

29:                                               ; preds = %26
  %30 = getelementptr i8, ptr %2, i64 32
  %31 = load ptr, ptr %30, align 8, !invariant.group !3
  %32 = load i64, ptr %31, align 8
  %33 = add i64 %32, 1
  store i64 %33, ptr %31, align 8
  %34 = icmp ne i64 %32, 0
  tail call void @llvm.assume(i1 %34)
  br label %35

35:                                               ; preds = %29, %26
  %36 = getelementptr i8, ptr %0, i64 40
  %37 = icmp ugt ptr %6, %36
  br i1 %37, label %38, label %44

38:                                               ; preds = %35
  %39 = getelementptr i8, ptr %2, i64 40
  %40 = load ptr, ptr %39, align 8, !invariant.group !3
  %41 = load i64, ptr %40, align 8
  %42 = add i64 %41, 1
  store i64 %42, ptr %40, align 8
  %43 = icmp ne i64 %41, 0
  tail call void @llvm.assume(i1 %43)
  br label %44

44:                                               ; preds = %38, %35
  ret ptr %2
}

define internal void @"_RNvNvC12hoascbv_testsE_8$closure4drop"(ptr captures(address) %0) {
  %2 = load i64, ptr %0, align 8
  %3 = add i64 %2, -1
  store i64 %3, ptr %0, align 8
  %4 = icmp eq i64 %2, 1
  br i1 %4, label %5, label %44

5:                                                ; preds = %1
  %6 = getelementptr i8, ptr %0, i64 16
  %7 = load ptr, ptr %6, align 8
  %8 = getelementptr i8, ptr %0, i64 24
  %9 = icmp ugt ptr %7, %8
  br i1 %9, label %10, label %19

10:                                               ; preds = %5
  %11 = load ptr, ptr %8, align 8
  %12 = load i64, ptr %11, align 8
  %13 = add i64 %12, -1
  store i64 %13, ptr %11, align 8
  %14 = icmp eq i64 %12, 1
  br i1 %14, label %15, label %17

15:                                               ; preds = %10
  %16 = getelementptr i8, ptr %11, i64 8
  tail call void @_RINvNvC4core9intrinsic13drop_in_placeC5ValueE(ptr %16)
  br label %17

17:                                               ; preds = %15, %10
  %18 = phi ptr [ %11, %15 ], [ null, %10 ]
  tail call void @__reussir_deallocate(ptr %18, i64 8, i64 32)
  br label %19

19:                                               ; preds = %17, %5
  %20 = getelementptr i8, ptr %0, i64 32
  %21 = icmp ugt ptr %7, %20
  br i1 %21, label %22, label %31

22:                                               ; preds = %19
  %23 = load ptr, ptr %20, align 8
  %24 = load i64, ptr %23, align 8
  %25 = add i64 %24, -1
  store i64 %25, ptr %23, align 8
  %26 = icmp eq i64 %24, 1
  br i1 %26, label %27, label %29

27:                                               ; preds = %22
  %28 = getelementptr i8, ptr %23, i64 8
  tail call void @_RINvNvC4core9intrinsic13drop_in_placeC5ValueE(ptr %28)
  br label %29

29:                                               ; preds = %27, %22
  %30 = phi ptr [ %23, %27 ], [ null, %22 ]
  tail call void @__reussir_deallocate(ptr %30, i64 8, i64 32)
  br label %31

31:                                               ; preds = %29, %19
  %32 = getelementptr i8, ptr %0, i64 40
  %33 = icmp ugt ptr %7, %32
  br i1 %33, label %34, label %43

34:                                               ; preds = %31
  %35 = load ptr, ptr %32, align 8
  %36 = load i64, ptr %35, align 8
  %37 = add i64 %36, -1
  store i64 %37, ptr %35, align 8
  %38 = icmp eq i64 %36, 1
  br i1 %38, label %39, label %41

39:                                               ; preds = %34
  %40 = getelementptr i8, ptr %35, i64 8
  tail call void @_RINvNvC4core9intrinsic13drop_in_placeC5ValueE(ptr %40)
  br label %41

41:                                               ; preds = %39, %34
  %42 = phi ptr [ %35, %39 ], [ null, %34 ]
  tail call void @__reussir_deallocate(ptr %42, i64 8, i64 32)
  br label %43

43:                                               ; preds = %41, %31
  tail call void @__reussir_deallocate(ptr nonnull %0, i64 8, i64 48)
  br label %44

44:                                               ; preds = %43, %1
  ret void
}

; Function Attrs: mustprogress norecurse nounwind willreturn
define internal noalias noundef ptr @"_RNvNvC12hoascbv_testsF_8$closure8evaluate"(ptr captures(none) %0) #2 {
  %2 = getelementptr i8, ptr %0, i64 24
  %3 = load ptr, ptr %2, align 8, !invariant.group !3
  %4 = getelementptr i8, ptr %0, i64 32
  %5 = load ptr, ptr %4, align 8, !invariant.group !3
  %6 = tail call align 8 dereferenceable_or_null(48) ptr @__reussir_allocate(i64 8, i64 48)
  store i64 1, ptr %6, align 8
  %7 = getelementptr i8, ptr %6, i64 8
  store ptr @"_RNvNvC12hoascbv_testsE_8$closure6vtable", ptr %7, align 8, !invariant.group !3
  %8 = getelementptr i8, ptr %6, i64 16
  %9 = getelementptr i8, ptr %6, i64 24
  %10 = ptrtoint ptr %9 to i64
  store ptr %3, ptr %9, align 8, !invariant.group !3
  %11 = add nuw i64 %10, 8
  %12 = inttoptr i64 %11 to ptr
  store ptr %5, ptr %12, align 8, !invariant.group !3
  %13 = add nuw i64 %10, 16
  %14 = inttoptr i64 %13 to ptr
  store ptr %14, ptr %8, align 8
  %15 = tail call align 8 dereferenceable_or_null(32) ptr @__reussir_allocate(i64 8, i64 32)
  store i64 1, ptr %15, align 8
  %16 = getelementptr i8, ptr %15, i64 8
  store i64 2, ptr %16, align 8
  %.repack4 = getelementptr i8, ptr %15, i64 16
  store i64 1, ptr %.repack4, align 8
  %.repack4.repack6 = getelementptr i8, ptr %15, i64 24
  store ptr %6, ptr %.repack4.repack6, align 8
  %17 = load i64, ptr %0, align 8
  %18 = add i64 %17, -1
  store i64 %18, ptr %0, align 8
  %19 = icmp eq i64 %17, 1
  br i1 %19, label %20, label %21

20:                                               ; preds = %1
  tail call void @__reussir_deallocate(ptr nonnull %0, i64 8, i64 40)
  br label %21

21:                                               ; preds = %20, %1
  ret ptr %15
}

; Function Attrs: mustprogress norecurse nounwind willreturn
define internal noundef ptr @"_RNvNvC12hoascbv_testsF_8$closure5clone"(ptr %0) #2 {
  %2 = tail call align 8 dereferenceable_or_null(40) ptr @__reussir_allocate(i64 8, i64 40)
  store i64 1, ptr %2, align 8
  %3 = getelementptr i8, ptr %2, i64 8
  %4 = getelementptr i8, ptr %0, i64 8
  %5 = getelementptr i8, ptr %0, i64 16
  %6 = load ptr, ptr %5, align 8
  %7 = ptrtoint ptr %4 to i64
  %8 = ptrtoint ptr %3 to i64
  %9 = ptrtoint ptr %6 to i64
  %10 = sub nuw nsw i64 %9, %7
  %11 = add nuw nsw i64 %7, 8
  %12 = inttoptr i64 %11 to ptr
  %13 = add nuw nsw i64 %8, 8
  %14 = inttoptr i64 %13 to ptr
  tail call void @llvm.memcpy.inline.p0.p0.i64(ptr nonnull align 8 %14, ptr nonnull align 1 %12, i64 24, i1 false)
  %15 = load ptr, ptr %4, align 8, !invariant.group !3
  store ptr %15, ptr %3, align 8, !invariant.group !3
  %16 = getelementptr inbounds i8, ptr %3, i64 %10
  %17 = getelementptr i8, ptr %2, i64 16
  store ptr %16, ptr %17, align 8
  %18 = getelementptr i8, ptr %0, i64 24
  %19 = icmp ugt ptr %6, %18
  br i1 %19, label %20, label %26

20:                                               ; preds = %1
  %21 = getelementptr i8, ptr %2, i64 24
  %22 = load ptr, ptr %21, align 8, !invariant.group !3
  %23 = load i64, ptr %22, align 8
  %24 = add i64 %23, 1
  store i64 %24, ptr %22, align 8
  %25 = icmp ne i64 %23, 0
  tail call void @llvm.assume(i1 %25)
  br label %26

26:                                               ; preds = %20, %1
  %27 = getelementptr i8, ptr %0, i64 32
  %28 = icmp ugt ptr %6, %27
  br i1 %28, label %29, label %35

29:                                               ; preds = %26
  %30 = getelementptr i8, ptr %2, i64 32
  %31 = load ptr, ptr %30, align 8, !invariant.group !3
  %32 = load i64, ptr %31, align 8
  %33 = add i64 %32, 1
  store i64 %33, ptr %31, align 8
  %34 = icmp ne i64 %32, 0
  tail call void @llvm.assume(i1 %34)
  br label %35

35:                                               ; preds = %29, %26
  ret ptr %2
}

define internal void @"_RNvNvC12hoascbv_testsF_8$closure4drop"(ptr captures(address) %0) {
  %2 = load i64, ptr %0, align 8
  %3 = add i64 %2, -1
  store i64 %3, ptr %0, align 8
  %4 = icmp eq i64 %2, 1
  br i1 %4, label %5, label %32

5:                                                ; preds = %1
  %6 = getelementptr i8, ptr %0, i64 16
  %7 = load ptr, ptr %6, align 8
  %8 = getelementptr i8, ptr %0, i64 24
  %9 = icmp ugt ptr %7, %8
  br i1 %9, label %10, label %19

10:                                               ; preds = %5
  %11 = load ptr, ptr %8, align 8
  %12 = load i64, ptr %11, align 8
  %13 = add i64 %12, -1
  store i64 %13, ptr %11, align 8
  %14 = icmp eq i64 %12, 1
  br i1 %14, label %15, label %17

15:                                               ; preds = %10
  %16 = getelementptr i8, ptr %11, i64 8
  tail call void @_RINvNvC4core9intrinsic13drop_in_placeC5ValueE(ptr %16)
  br label %17

17:                                               ; preds = %15, %10
  %18 = phi ptr [ %11, %15 ], [ null, %10 ]
  tail call void @__reussir_deallocate(ptr %18, i64 8, i64 32)
  br label %19

19:                                               ; preds = %17, %5
  %20 = getelementptr i8, ptr %0, i64 32
  %21 = icmp ugt ptr %7, %20
  br i1 %21, label %22, label %31

22:                                               ; preds = %19
  %23 = load ptr, ptr %20, align 8
  %24 = load i64, ptr %23, align 8
  %25 = add i64 %24, -1
  store i64 %25, ptr %23, align 8
  %26 = icmp eq i64 %24, 1
  br i1 %26, label %27, label %29

27:                                               ; preds = %22
  %28 = getelementptr i8, ptr %23, i64 8
  tail call void @_RINvNvC4core9intrinsic13drop_in_placeC5ValueE(ptr %28)
  br label %29

29:                                               ; preds = %27, %22
  %30 = phi ptr [ %23, %27 ], [ null, %22 ]
  tail call void @__reussir_deallocate(ptr %30, i64 8, i64 32)
  br label %31

31:                                               ; preds = %29, %19
  tail call void @__reussir_deallocate(ptr nonnull %0, i64 8, i64 40)
  br label %32

32:                                               ; preds = %31, %1
  ret void
}

define internal ptr @"_RNvNvC12hoascbv_testsG_8$closure8evaluate"(ptr captures(none) %0) {
  %2 = getelementptr i8, ptr %0, i64 24
  %3 = load ptr, ptr %2, align 8, !invariant.group !3
  %4 = getelementptr i8, ptr %0, i64 32
  %5 = load ptr, ptr %4, align 8, !invariant.group !3
  %6 = getelementptr i8, ptr %0, i64 40
  %7 = load ptr, ptr %6, align 8, !invariant.group !3
  %8 = load i64, ptr %5, align 8
  %9 = add i64 %8, 1
  store i64 %9, ptr %5, align 8
  %10 = icmp ne i64 %8, 0
  tail call void @llvm.assume(i1 %10)
  %11 = tail call ptr @_RC3ap2(ptr %3, ptr nonnull %5, ptr %7)
  %12 = tail call ptr @_RC2ap(ptr nonnull %5, ptr %11)
  %13 = load i64, ptr %0, align 8
  %14 = add i64 %13, -1
  store i64 %14, ptr %0, align 8
  %15 = icmp eq i64 %13, 1
  br i1 %15, label %16, label %17

16:                                               ; preds = %1
  tail call void @__reussir_deallocate(ptr nonnull %0, i64 8, i64 48)
  br label %17

17:                                               ; preds = %16, %1
  ret ptr %12
}

; Function Attrs: mustprogress norecurse nounwind willreturn
define internal noundef ptr @"_RNvNvC12hoascbv_testsG_8$closure5clone"(ptr %0) #2 {
  %2 = tail call align 8 dereferenceable_or_null(48) ptr @__reussir_allocate(i64 8, i64 48)
  store i64 1, ptr %2, align 8
  %3 = getelementptr i8, ptr %2, i64 8
  %4 = getelementptr i8, ptr %0, i64 8
  %5 = getelementptr i8, ptr %0, i64 16
  %6 = load ptr, ptr %5, align 8
  %7 = ptrtoint ptr %4 to i64
  %8 = ptrtoint ptr %3 to i64
  %9 = ptrtoint ptr %6 to i64
  %10 = sub nuw nsw i64 %9, %7
  %11 = add nuw nsw i64 %7, 8
  %12 = inttoptr i64 %11 to ptr
  %13 = add nuw nsw i64 %8, 8
  %14 = inttoptr i64 %13 to ptr
  tail call void @llvm.memcpy.inline.p0.p0.i64(ptr nonnull align 8 %14, ptr nonnull align 1 %12, i64 32, i1 false)
  %15 = load ptr, ptr %4, align 8, !invariant.group !3
  store ptr %15, ptr %3, align 8, !invariant.group !3
  %16 = getelementptr inbounds i8, ptr %3, i64 %10
  %17 = getelementptr i8, ptr %2, i64 16
  store ptr %16, ptr %17, align 8
  %18 = getelementptr i8, ptr %0, i64 24
  %19 = icmp ugt ptr %6, %18
  br i1 %19, label %20, label %26

20:                                               ; preds = %1
  %21 = getelementptr i8, ptr %2, i64 24
  %22 = load ptr, ptr %21, align 8, !invariant.group !3
  %23 = load i64, ptr %22, align 8
  %24 = add i64 %23, 1
  store i64 %24, ptr %22, align 8
  %25 = icmp ne i64 %23, 0
  tail call void @llvm.assume(i1 %25)
  br label %26

26:                                               ; preds = %20, %1
  %27 = getelementptr i8, ptr %0, i64 32
  %28 = icmp ugt ptr %6, %27
  br i1 %28, label %29, label %35

29:                                               ; preds = %26
  %30 = getelementptr i8, ptr %2, i64 32
  %31 = load ptr, ptr %30, align 8, !invariant.group !3
  %32 = load i64, ptr %31, align 8
  %33 = add i64 %32, 1
  store i64 %33, ptr %31, align 8
  %34 = icmp ne i64 %32, 0
  tail call void @llvm.assume(i1 %34)
  br label %35

35:                                               ; preds = %29, %26
  %36 = getelementptr i8, ptr %0, i64 40
  %37 = icmp ugt ptr %6, %36
  br i1 %37, label %38, label %44

38:                                               ; preds = %35
  %39 = getelementptr i8, ptr %2, i64 40
  %40 = load ptr, ptr %39, align 8, !invariant.group !3
  %41 = load i64, ptr %40, align 8
  %42 = add i64 %41, 1
  store i64 %42, ptr %40, align 8
  %43 = icmp ne i64 %41, 0
  tail call void @llvm.assume(i1 %43)
  br label %44

44:                                               ; preds = %38, %35
  ret ptr %2
}

define internal void @"_RNvNvC12hoascbv_testsG_8$closure4drop"(ptr captures(address) %0) {
  %2 = load i64, ptr %0, align 8
  %3 = add i64 %2, -1
  store i64 %3, ptr %0, align 8
  %4 = icmp eq i64 %2, 1
  br i1 %4, label %5, label %44

5:                                                ; preds = %1
  %6 = getelementptr i8, ptr %0, i64 16
  %7 = load ptr, ptr %6, align 8
  %8 = getelementptr i8, ptr %0, i64 24
  %9 = icmp ugt ptr %7, %8
  br i1 %9, label %10, label %19

10:                                               ; preds = %5
  %11 = load ptr, ptr %8, align 8
  %12 = load i64, ptr %11, align 8
  %13 = add i64 %12, -1
  store i64 %13, ptr %11, align 8
  %14 = icmp eq i64 %12, 1
  br i1 %14, label %15, label %17

15:                                               ; preds = %10
  %16 = getelementptr i8, ptr %11, i64 8
  tail call void @_RINvNvC4core9intrinsic13drop_in_placeC5ValueE(ptr %16)
  br label %17

17:                                               ; preds = %15, %10
  %18 = phi ptr [ %11, %15 ], [ null, %10 ]
  tail call void @__reussir_deallocate(ptr %18, i64 8, i64 32)
  br label %19

19:                                               ; preds = %17, %5
  %20 = getelementptr i8, ptr %0, i64 32
  %21 = icmp ugt ptr %7, %20
  br i1 %21, label %22, label %31

22:                                               ; preds = %19
  %23 = load ptr, ptr %20, align 8
  %24 = load i64, ptr %23, align 8
  %25 = add i64 %24, -1
  store i64 %25, ptr %23, align 8
  %26 = icmp eq i64 %24, 1
  br i1 %26, label %27, label %29

27:                                               ; preds = %22
  %28 = getelementptr i8, ptr %23, i64 8
  tail call void @_RINvNvC4core9intrinsic13drop_in_placeC5ValueE(ptr %28)
  br label %29

29:                                               ; preds = %27, %22
  %30 = phi ptr [ %23, %27 ], [ null, %22 ]
  tail call void @__reussir_deallocate(ptr %30, i64 8, i64 32)
  br label %31

31:                                               ; preds = %29, %19
  %32 = getelementptr i8, ptr %0, i64 40
  %33 = icmp ugt ptr %7, %32
  br i1 %33, label %34, label %43

34:                                               ; preds = %31
  %35 = load ptr, ptr %32, align 8
  %36 = load i64, ptr %35, align 8
  %37 = add i64 %36, -1
  store i64 %37, ptr %35, align 8
  %38 = icmp eq i64 %36, 1
  br i1 %38, label %39, label %41

39:                                               ; preds = %34
  %40 = getelementptr i8, ptr %35, i64 8
  tail call void @_RINvNvC4core9intrinsic13drop_in_placeC5ValueE(ptr %40)
  br label %41

41:                                               ; preds = %39, %34
  %42 = phi ptr [ %35, %39 ], [ null, %34 ]
  tail call void @__reussir_deallocate(ptr %42, i64 8, i64 32)
  br label %43

43:                                               ; preds = %41, %31
  tail call void @__reussir_deallocate(ptr nonnull %0, i64 8, i64 48)
  br label %44

44:                                               ; preds = %43, %1
  ret void
}

; Function Attrs: mustprogress norecurse nounwind willreturn
define internal noalias noundef ptr @"_RNvNvC12hoascbv_testsH_8$closure8evaluate"(ptr captures(none) %0) #2 {
  %2 = getelementptr i8, ptr %0, i64 24
  %3 = load ptr, ptr %2, align 8, !invariant.group !3
  %4 = getelementptr i8, ptr %0, i64 32
  %5 = load ptr, ptr %4, align 8, !invariant.group !3
  %6 = tail call align 8 dereferenceable_or_null(48) ptr @__reussir_allocate(i64 8, i64 48)
  store i64 1, ptr %6, align 8
  %7 = getelementptr i8, ptr %6, i64 8
  store ptr @"_RNvNvC12hoascbv_testsG_8$closure6vtable", ptr %7, align 8, !invariant.group !3
  %8 = getelementptr i8, ptr %6, i64 16
  %9 = getelementptr i8, ptr %6, i64 24
  %10 = ptrtoint ptr %9 to i64
  store ptr %3, ptr %9, align 8, !invariant.group !3
  %11 = add nuw i64 %10, 8
  %12 = inttoptr i64 %11 to ptr
  store ptr %5, ptr %12, align 8, !invariant.group !3
  %13 = add nuw i64 %10, 16
  %14 = inttoptr i64 %13 to ptr
  store ptr %14, ptr %8, align 8
  %15 = tail call align 8 dereferenceable_or_null(32) ptr @__reussir_allocate(i64 8, i64 32)
  store i64 1, ptr %15, align 8
  %16 = getelementptr i8, ptr %15, i64 8
  store i64 2, ptr %16, align 8
  %.repack4 = getelementptr i8, ptr %15, i64 16
  store i64 1, ptr %.repack4, align 8
  %.repack4.repack6 = getelementptr i8, ptr %15, i64 24
  store ptr %6, ptr %.repack4.repack6, align 8
  %17 = load i64, ptr %0, align 8
  %18 = add i64 %17, -1
  store i64 %18, ptr %0, align 8
  %19 = icmp eq i64 %17, 1
  br i1 %19, label %20, label %21

20:                                               ; preds = %1
  tail call void @__reussir_deallocate(ptr nonnull %0, i64 8, i64 40)
  br label %21

21:                                               ; preds = %20, %1
  ret ptr %15
}

; Function Attrs: mustprogress norecurse nounwind willreturn
define internal noundef ptr @"_RNvNvC12hoascbv_testsH_8$closure5clone"(ptr %0) #2 {
  %2 = tail call align 8 dereferenceable_or_null(40) ptr @__reussir_allocate(i64 8, i64 40)
  store i64 1, ptr %2, align 8
  %3 = getelementptr i8, ptr %2, i64 8
  %4 = getelementptr i8, ptr %0, i64 8
  %5 = getelementptr i8, ptr %0, i64 16
  %6 = load ptr, ptr %5, align 8
  %7 = ptrtoint ptr %4 to i64
  %8 = ptrtoint ptr %3 to i64
  %9 = ptrtoint ptr %6 to i64
  %10 = sub nuw nsw i64 %9, %7
  %11 = add nuw nsw i64 %7, 8
  %12 = inttoptr i64 %11 to ptr
  %13 = add nuw nsw i64 %8, 8
  %14 = inttoptr i64 %13 to ptr
  tail call void @llvm.memcpy.inline.p0.p0.i64(ptr nonnull align 8 %14, ptr nonnull align 1 %12, i64 24, i1 false)
  %15 = load ptr, ptr %4, align 8, !invariant.group !3
  store ptr %15, ptr %3, align 8, !invariant.group !3
  %16 = getelementptr inbounds i8, ptr %3, i64 %10
  %17 = getelementptr i8, ptr %2, i64 16
  store ptr %16, ptr %17, align 8
  %18 = getelementptr i8, ptr %0, i64 24
  %19 = icmp ugt ptr %6, %18
  br i1 %19, label %20, label %26

20:                                               ; preds = %1
  %21 = getelementptr i8, ptr %2, i64 24
  %22 = load ptr, ptr %21, align 8, !invariant.group !3
  %23 = load i64, ptr %22, align 8
  %24 = add i64 %23, 1
  store i64 %24, ptr %22, align 8
  %25 = icmp ne i64 %23, 0
  tail call void @llvm.assume(i1 %25)
  br label %26

26:                                               ; preds = %20, %1
  %27 = getelementptr i8, ptr %0, i64 32
  %28 = icmp ugt ptr %6, %27
  br i1 %28, label %29, label %35

29:                                               ; preds = %26
  %30 = getelementptr i8, ptr %2, i64 32
  %31 = load ptr, ptr %30, align 8, !invariant.group !3
  %32 = load i64, ptr %31, align 8
  %33 = add i64 %32, 1
  store i64 %33, ptr %31, align 8
  %34 = icmp ne i64 %32, 0
  tail call void @llvm.assume(i1 %34)
  br label %35

35:                                               ; preds = %29, %26
  ret ptr %2
}

define internal void @"_RNvNvC12hoascbv_testsH_8$closure4drop"(ptr captures(address) %0) {
  %2 = load i64, ptr %0, align 8
  %3 = add i64 %2, -1
  store i64 %3, ptr %0, align 8
  %4 = icmp eq i64 %2, 1
  br i1 %4, label %5, label %32

5:                                                ; preds = %1
  %6 = getelementptr i8, ptr %0, i64 16
  %7 = load ptr, ptr %6, align 8
  %8 = getelementptr i8, ptr %0, i64 24
  %9 = icmp ugt ptr %7, %8
  br i1 %9, label %10, label %19

10:                                               ; preds = %5
  %11 = load ptr, ptr %8, align 8
  %12 = load i64, ptr %11, align 8
  %13 = add i64 %12, -1
  store i64 %13, ptr %11, align 8
  %14 = icmp eq i64 %12, 1
  br i1 %14, label %15, label %17

15:                                               ; preds = %10
  %16 = getelementptr i8, ptr %11, i64 8
  tail call void @_RINvNvC4core9intrinsic13drop_in_placeC5ValueE(ptr %16)
  br label %17

17:                                               ; preds = %15, %10
  %18 = phi ptr [ %11, %15 ], [ null, %10 ]
  tail call void @__reussir_deallocate(ptr %18, i64 8, i64 32)
  br label %19

19:                                               ; preds = %17, %5
  %20 = getelementptr i8, ptr %0, i64 32
  %21 = icmp ugt ptr %7, %20
  br i1 %21, label %22, label %31

22:                                               ; preds = %19
  %23 = load ptr, ptr %20, align 8
  %24 = load i64, ptr %23, align 8
  %25 = add i64 %24, -1
  store i64 %25, ptr %23, align 8
  %26 = icmp eq i64 %24, 1
  br i1 %26, label %27, label %29

27:                                               ; preds = %22
  %28 = getelementptr i8, ptr %23, i64 8
  tail call void @_RINvNvC4core9intrinsic13drop_in_placeC5ValueE(ptr %28)
  br label %29

29:                                               ; preds = %27, %22
  %30 = phi ptr [ %23, %27 ], [ null, %22 ]
  tail call void @__reussir_deallocate(ptr %30, i64 8, i64 32)
  br label %31

31:                                               ; preds = %29, %19
  tail call void @__reussir_deallocate(ptr nonnull %0, i64 8, i64 40)
  br label %32

32:                                               ; preds = %31, %1
  ret void
}

define internal ptr @"_RNvNvC12hoascbv_testsI_8$closure8evaluate"(ptr captures(none) %0) {
  %2 = getelementptr i8, ptr %0, i64 24
  %3 = load ptr, ptr %2, align 8, !invariant.group !3
  %4 = tail call align 8 dereferenceable_or_null(32) ptr @__reussir_allocate(i64 8, i64 32), !dbg !63
  store i64 1, ptr %4, align 8, !dbg !63
  %5 = getelementptr i8, ptr %4, i64 8, !dbg !63
  store ptr @"_RNvNvC4nodes3_8$closure6vtable", ptr %5, align 8, !dbg !63, !invariant.group !3
  %6 = getelementptr i8, ptr %4, i64 16, !dbg !63
  %7 = getelementptr i8, ptr %4, i64 24, !dbg !63
  store ptr %7, ptr %6, align 8, !dbg !63
  %8 = tail call align 8 dereferenceable_or_null(32) ptr @__reussir_allocate(i64 8, i64 32), !dbg !64
  store i64 1, ptr %8, align 8, !dbg !64
  %9 = getelementptr i8, ptr %8, i64 8, !dbg !64
  store i64 2, ptr %9, align 8, !dbg !64
  %.repack4.i = getelementptr i8, ptr %8, i64 16, !dbg !64
  store i64 0, ptr %.repack4.i, align 8, !dbg !64
  %.repack4.repack6.i = getelementptr i8, ptr %8, i64 24, !dbg !64
  store ptr %4, ptr %.repack4.repack6.i, align 8, !dbg !64
  %10 = load i64, ptr %3, align 8
  %11 = add i64 %10, 1
  store i64 %11, ptr %3, align 8
  %12 = icmp ne i64 %10, 0
  tail call void @llvm.assume(i1 %12)
  %13 = tail call ptr @_RC3ap2(ptr nonnull %8, ptr nonnull %3, ptr nonnull %3)
  %14 = load i64, ptr %0, align 8
  %15 = add i64 %14, -1
  store i64 %15, ptr %0, align 8
  %16 = icmp eq i64 %14, 1
  br i1 %16, label %17, label %18

17:                                               ; preds = %1
  tail call void @__reussir_deallocate(ptr nonnull %0, i64 8, i64 32)
  br label %18

18:                                               ; preds = %17, %1
  ret ptr %13
}

; Function Attrs: mustprogress norecurse nounwind willreturn
define internal noundef ptr @"_RNvNvC12hoascbv_testsI_8$closure5clone"(ptr %0) #2 {
  %2 = tail call align 8 dereferenceable_or_null(32) ptr @__reussir_allocate(i64 8, i64 32)
  store i64 1, ptr %2, align 8
  %3 = getelementptr i8, ptr %2, i64 8
  %4 = getelementptr i8, ptr %0, i64 8
  %5 = getelementptr i8, ptr %0, i64 16
  %6 = load ptr, ptr %5, align 8
  %7 = ptrtoint ptr %4 to i64
  %8 = ptrtoint ptr %3 to i64
  %9 = ptrtoint ptr %6 to i64
  %10 = sub nuw nsw i64 %9, %7
  %11 = add nuw nsw i64 %7, 8
  %12 = inttoptr i64 %11 to ptr
  %13 = add nuw nsw i64 %8, 8
  %14 = inttoptr i64 %13 to ptr
  tail call void @llvm.memcpy.inline.p0.p0.i64(ptr nonnull align 8 %14, ptr nonnull align 1 %12, i64 16, i1 false)
  %15 = load ptr, ptr %4, align 8, !invariant.group !3
  store ptr %15, ptr %3, align 8, !invariant.group !3
  %16 = getelementptr inbounds i8, ptr %3, i64 %10
  %17 = getelementptr i8, ptr %2, i64 16
  store ptr %16, ptr %17, align 8
  %18 = getelementptr i8, ptr %0, i64 24
  %19 = icmp ugt ptr %6, %18
  br i1 %19, label %20, label %26

20:                                               ; preds = %1
  %21 = getelementptr i8, ptr %2, i64 24
  %22 = load ptr, ptr %21, align 8, !invariant.group !3
  %23 = load i64, ptr %22, align 8
  %24 = add i64 %23, 1
  store i64 %24, ptr %22, align 8
  %25 = icmp ne i64 %23, 0
  tail call void @llvm.assume(i1 %25)
  br label %26

26:                                               ; preds = %20, %1
  ret ptr %2
}

define internal void @"_RNvNvC12hoascbv_testsI_8$closure4drop"(ptr captures(address) %0) {
  %2 = load i64, ptr %0, align 8
  %3 = add i64 %2, -1
  store i64 %3, ptr %0, align 8
  %4 = icmp eq i64 %2, 1
  br i1 %4, label %5, label %20

5:                                                ; preds = %1
  %6 = getelementptr i8, ptr %0, i64 16
  %7 = load ptr, ptr %6, align 8
  %8 = getelementptr i8, ptr %0, i64 24
  %9 = icmp ugt ptr %7, %8
  br i1 %9, label %10, label %19

10:                                               ; preds = %5
  %11 = load ptr, ptr %8, align 8
  %12 = load i64, ptr %11, align 8
  %13 = add i64 %12, -1
  store i64 %13, ptr %11, align 8
  %14 = icmp eq i64 %12, 1
  br i1 %14, label %15, label %17

15:                                               ; preds = %10
  %16 = getelementptr i8, ptr %11, i64 8
  tail call void @_RINvNvC4core9intrinsic13drop_in_placeC5ValueE(ptr %16)
  br label %17

17:                                               ; preds = %15, %10
  %18 = phi ptr [ %11, %15 ], [ null, %10 ]
  tail call void @__reussir_deallocate(ptr %18, i64 8, i64 32)
  br label %19

19:                                               ; preds = %17, %5
  tail call void @__reussir_deallocate(ptr nonnull %0, i64 8, i64 32)
  br label %20

20:                                               ; preds = %19, %1
  ret void
}

define internal ptr @"_RNvNvC12hoascbv_testsJ_8$closure8evaluate"(ptr captures(none) %0) {
  %2 = getelementptr i8, ptr %0, i64 24
  %3 = load ptr, ptr %2, align 8, !invariant.group !3
  %4 = tail call align 8 dereferenceable_or_null(32) ptr @__reussir_allocate(i64 8, i64 32)
  store i64 1, ptr %4, align 8
  %5 = getelementptr i8, ptr %4, i64 8
  store ptr @"_RNvNvC12hoascbv_testsI_8$closure6vtable", ptr %5, align 8, !invariant.group !3
  %6 = getelementptr i8, ptr %4, i64 16
  %7 = getelementptr i8, ptr %4, i64 24
  store ptr %7, ptr %6, align 8
  %8 = tail call align 8 dereferenceable_or_null(32) ptr @__reussir_allocate(i64 8, i64 32)
  store i64 1, ptr %8, align 8
  %9 = getelementptr i8, ptr %8, i64 8
  store i64 2, ptr %9, align 8
  %.repack4 = getelementptr i8, ptr %8, i64 16
  store i64 1, ptr %.repack4, align 8
  %.repack4.repack6 = getelementptr i8, ptr %8, i64 24
  store ptr %4, ptr %.repack4.repack6, align 8
  %10 = tail call align 8 dereferenceable_or_null(32) ptr @__reussir_allocate(i64 8, i64 32), !dbg !66
  store i64 1, ptr %10, align 8, !dbg !66
  %11 = getelementptr i8, ptr %10, i64 8, !dbg !66
  store ptr @"_RNvNvC4leafs1_8$closure6vtable", ptr %11, align 8, !dbg !66, !invariant.group !3
  %12 = getelementptr i8, ptr %10, i64 16, !dbg !66
  %13 = getelementptr i8, ptr %10, i64 24, !dbg !66
  store ptr %13, ptr %12, align 8, !dbg !66
  %14 = tail call align 8 dereferenceable_or_null(32) ptr @__reussir_allocate(i64 8, i64 32), !dbg !67
  store i64 1, ptr %14, align 8, !dbg !67
  %15 = getelementptr i8, ptr %14, i64 8, !dbg !67
  store i64 2, ptr %15, align 8, !dbg !67
  %.repack4.i = getelementptr i8, ptr %14, i64 16, !dbg !67
  store i64 0, ptr %.repack4.i, align 8, !dbg !67
  %.repack4.repack6.i = getelementptr i8, ptr %14, i64 24, !dbg !67
  store ptr %10, ptr %.repack4.repack6.i, align 8, !dbg !67
  %16 = tail call ptr @_RC3ap2(ptr %3, ptr nonnull %8, ptr nonnull %14)
  %17 = load i64, ptr %0, align 8
  %18 = add i64 %17, -1
  store i64 %18, ptr %0, align 8
  %19 = icmp eq i64 %17, 1
  br i1 %19, label %20, label %21

20:                                               ; preds = %1
  tail call void @__reussir_deallocate(ptr nonnull %0, i64 8, i64 32)
  br label %21

21:                                               ; preds = %20, %1
  ret ptr %16
}

; Function Attrs: mustprogress norecurse nounwind willreturn
define internal noundef ptr @"_RNvNvC12hoascbv_testsJ_8$closure5clone"(ptr %0) #2 {
  %2 = tail call align 8 dereferenceable_or_null(32) ptr @__reussir_allocate(i64 8, i64 32)
  store i64 1, ptr %2, align 8
  %3 = getelementptr i8, ptr %2, i64 8
  %4 = getelementptr i8, ptr %0, i64 8
  %5 = getelementptr i8, ptr %0, i64 16
  %6 = load ptr, ptr %5, align 8
  %7 = ptrtoint ptr %4 to i64
  %8 = ptrtoint ptr %3 to i64
  %9 = ptrtoint ptr %6 to i64
  %10 = sub nuw nsw i64 %9, %7
  %11 = add nuw nsw i64 %7, 8
  %12 = inttoptr i64 %11 to ptr
  %13 = add nuw nsw i64 %8, 8
  %14 = inttoptr i64 %13 to ptr
  tail call void @llvm.memcpy.inline.p0.p0.i64(ptr nonnull align 8 %14, ptr nonnull align 1 %12, i64 16, i1 false)
  %15 = load ptr, ptr %4, align 8, !invariant.group !3
  store ptr %15, ptr %3, align 8, !invariant.group !3
  %16 = getelementptr inbounds i8, ptr %3, i64 %10
  %17 = getelementptr i8, ptr %2, i64 16
  store ptr %16, ptr %17, align 8
  %18 = getelementptr i8, ptr %0, i64 24
  %19 = icmp ugt ptr %6, %18
  br i1 %19, label %20, label %26

20:                                               ; preds = %1
  %21 = getelementptr i8, ptr %2, i64 24
  %22 = load ptr, ptr %21, align 8, !invariant.group !3
  %23 = load i64, ptr %22, align 8
  %24 = add i64 %23, 1
  store i64 %24, ptr %22, align 8
  %25 = icmp ne i64 %23, 0
  tail call void @llvm.assume(i1 %25)
  br label %26

26:                                               ; preds = %20, %1
  ret ptr %2
}

define internal void @"_RNvNvC12hoascbv_testsJ_8$closure4drop"(ptr captures(address) %0) {
  %2 = load i64, ptr %0, align 8
  %3 = add i64 %2, -1
  store i64 %3, ptr %0, align 8
  %4 = icmp eq i64 %2, 1
  br i1 %4, label %5, label %20

5:                                                ; preds = %1
  %6 = getelementptr i8, ptr %0, i64 16
  %7 = load ptr, ptr %6, align 8
  %8 = getelementptr i8, ptr %0, i64 24
  %9 = icmp ugt ptr %7, %8
  br i1 %9, label %10, label %19

10:                                               ; preds = %5
  %11 = load ptr, ptr %8, align 8
  %12 = load i64, ptr %11, align 8
  %13 = add i64 %12, -1
  store i64 %13, ptr %11, align 8
  %14 = icmp eq i64 %12, 1
  br i1 %14, label %15, label %17

15:                                               ; preds = %10
  %16 = getelementptr i8, ptr %11, i64 8
  tail call void @_RINvNvC4core9intrinsic13drop_in_placeC5ValueE(ptr %16)
  br label %17

17:                                               ; preds = %15, %10
  %18 = phi ptr [ %11, %15 ], [ null, %10 ]
  tail call void @__reussir_deallocate(ptr %18, i64 8, i64 32)
  br label %19

19:                                               ; preds = %17, %5
  tail call void @__reussir_deallocate(ptr nonnull %0, i64 8, i64 32)
  br label %20

20:                                               ; preds = %19, %1
  ret void
}

